###############################################################################
#
# IAR ELF Linker V7.30.1.7746/W32 for ARM                 28/Sep/2015  14:43:42
# Copyright 2007-2014 IAR Systems AB.
#
#    Output file  =  
#        C:\SiliconLabs\Thread-1.0.1\app\Thread_Sample_Client\build\exe\Thread_Sample_Client.out
#    Map file     =  
#        C:\SiliconLabs\Thread-1.0.1\app\Thread_Sample_Client\build\lst\Thread_Sample_Client.map
#    Command line =  
#        C:\SiliconLabs\Thread-1.0.1\app\Thread_Sample_Client\build\obj\adc.o
#        C:\SiliconLabs\Thread-1.0.1\app\Thread_Sample_Client\build\obj\address-configuration-debug.o
#        C:\SiliconLabs\Thread-1.0.1\app\Thread_Sample_Client\build\obj\assert-crash-handlers.o
#        C:\SiliconLabs\Thread-1.0.1\app\Thread_Sample_Client\build\obj\bootloader-interface-app.o
#        C:\SiliconLabs\Thread-1.0.1\app\Thread_Sample_Client\build\obj\bootloader-interface.o
#        C:\SiliconLabs\Thread-1.0.1\app\Thread_Sample_Client\build\obj\button.o
#        C:\SiliconLabs\Thread-1.0.1\app\Thread_Sample_Client\build\obj\buzzer.o
#        C:\SiliconLabs\Thread-1.0.1\app\Thread_Sample_Client\build\obj\callbacks.o
#        C:\SiliconLabs\Thread-1.0.1\app\Thread_Sample_Client\build\obj\cli.o
#        C:\SiliconLabs\Thread-1.0.1\app\Thread_Sample_Client\build\obj\client-implementation.o
#        C:\SiliconLabs\Thread-1.0.1\app\Thread_Sample_Client\build\obj\coap-cli.o
#        C:\SiliconLabs\Thread-1.0.1\app\Thread_Sample_Client\build\obj\command-interpreter2-error.o
#        C:\SiliconLabs\Thread-1.0.1\app\Thread_Sample_Client\build\obj\command-interpreter2-util.o
#        C:\SiliconLabs\Thread-1.0.1\app\Thread_Sample_Client\build\obj\command-interpreter2.o
#        C:\SiliconLabs\Thread-1.0.1\app\Thread_Sample_Client\build\obj\crc.o
#        C:\SiliconLabs\Thread-1.0.1\app\Thread_Sample_Client\build\obj\cstartup-common.o
#        C:\SiliconLabs\Thread-1.0.1\app\Thread_Sample_Client\build\obj\debug-print.o
#        C:\SiliconLabs\Thread-1.0.1\app\Thread_Sample_Client\build\obj\dhcp-client.o
#        C:\SiliconLabs\Thread-1.0.1\app\Thread_Sample_Client\build\obj\diagnostic.o
#        C:\SiliconLabs\Thread-1.0.1\app\Thread_Sample_Client\build\obj\em_usbd.o
#        C:\SiliconLabs\Thread-1.0.1\app\Thread_Sample_Client\build\obj\em_usbdch9.o
#        C:\SiliconLabs\Thread-1.0.1\app\Thread_Sample_Client\build\obj\em_usbdep.o
#        C:\SiliconLabs\Thread-1.0.1\app\Thread_Sample_Client\build\obj\em_usbhal.o
#        C:\SiliconLabs\Thread-1.0.1\app\Thread_Sample_Client\build\obj\em_usbint.o
#        C:\SiliconLabs\Thread-1.0.1\app\Thread_Sample_Client\build\obj\em_usbtimer.o
#        C:\SiliconLabs\Thread-1.0.1\app\Thread_Sample_Client\build\obj\ember-ip-configuration.o
#        C:\SiliconLabs\Thread-1.0.1\app\Thread_Sample_Client\build\obj\endian.o
#        C:\SiliconLabs\Thread-1.0.1\app\Thread_Sample_Client\build\obj\faults.o
#        C:\SiliconLabs\Thread-1.0.1\app\Thread_Sample_Client\build\obj\global-address-prefix-debug.o
#        C:\SiliconLabs\Thread-1.0.1\build\hal-library-cortexm3-iar-em3588-em3xx\hal-library.a
#        C:\SiliconLabs\Thread-1.0.1\app\Thread_Sample_Client\build\obj\heartbeat.o
#        C:\SiliconLabs\Thread-1.0.1\app\Thread_Sample_Client\build\obj\icmp-cli.o
#        C:\SiliconLabs\Thread-1.0.1\app\Thread_Sample_Client\build\obj\icmp-debug.o
#        C:\SiliconLabs\Thread-1.0.1\app\Thread_Sample_Client\build\obj\idle-sleep.o
#        C:\SiliconLabs\Thread-1.0.1\app\Thread_Sample_Client\build\obj\isr-stubs.o
#        C:\SiliconLabs\Thread-1.0.1\app\Thread_Sample_Client\build\obj\led.o
#        C:\SiliconLabs\Thread-1.0.1\app\Thread_Sample_Client\build\obj\main.o
#        C:\SiliconLabs\Thread-1.0.1\app\Thread_Sample_Client\build\obj\mem-util.o
#        C:\SiliconLabs\Thread-1.0.1\app\Thread_Sample_Client\build\obj\mfg-token.o
#        C:\SiliconLabs\Thread-1.0.1\build\mfglib-library-cortexm3-iar-em3588-em3xx\mfglib-library.a
#        C:\SiliconLabs\Thread-1.0.1\app\Thread_Sample_Client\build\obj\micro-common.o
#        C:\SiliconLabs\Thread-1.0.1\app\Thread_Sample_Client\build\obj\micro.o
#        C:\SiliconLabs\Thread-1.0.1\app\Thread_Sample_Client\build\obj\mpu.o
#        C:\SiliconLabs\Thread-1.0.1\app\Thread_Sample_Client\build\obj\network-management-cli.o
#        C:\SiliconLabs\Thread-1.0.1\app\Thread_Sample_Client\build\obj\random.o
#        C:\SiliconLabs\Thread-1.0.1\app\Thread_Sample_Client\build\obj\scan-debug.o
#        C:\SiliconLabs\Thread-1.0.1\app\Thread_Sample_Client\build\obj\serial-printf.o
#        C:\SiliconLabs\Thread-1.0.1\app\Thread_Sample_Client\build\obj\serial.o
#        C:\SiliconLabs\Thread-1.0.1\app\Thread_Sample_Client\build\obj\sim-eeprom.o
#        C:\SiliconLabs\Thread-1.0.1\build\sim-eeprom1-library-cortexm3-iar-em3588-em3xx\sim-eeprom1-library.a
#        C:\SiliconLabs\Thread-1.0.1\app\Thread_Sample_Client\build\obj\slaac-client.o
#        C:\SiliconLabs\Thread-1.0.1\app\Thread_Sample_Client\build\obj\sleep.o
#        C:\SiliconLabs\Thread-1.0.1\app\Thread_Sample_Client\build\obj\tftp-15-4.o
#        C:\SiliconLabs\Thread-1.0.1\app\Thread_Sample_Client\build\obj\tftp-bootload.o
#        C:\SiliconLabs\Thread-1.0.1\app\Thread_Sample_Client\build\obj\tftp-bootloader-15-4.o
#        C:\SiliconLabs\Thread-1.0.1\app\Thread_Sample_Client\build\obj\tftp-bootloader-server.o
#        C:\SiliconLabs\Thread-1.0.1\app\Thread_Sample_Client\build\obj\tftp-bootloader.o
#        C:\SiliconLabs\Thread-1.0.1\app\Thread_Sample_Client\build\obj\tftp-server.o
#        C:\SiliconLabs\Thread-1.0.1\app\Thread_Sample_Client\build\obj\tftp.o
#        C:\SiliconLabs\Thread-1.0.1\app\Thread_Sample_Client\build\obj\thread-bookkeeping.o
#        C:\SiliconLabs\Thread-1.0.1\app\Thread_Sample_Client\build\obj\thread-callback-stubs.o
#        C:\SiliconLabs\Thread-1.0.1\app\Thread_Sample_Client\build\obj\thread-callbacks.o
#        C:\SiliconLabs\Thread-1.0.1\app\Thread_Sample_Client\build\obj\thread-cli.o
#        C:\SiliconLabs\Thread-1.0.1\app\Thread_Sample_Client\build\obj\thread-events.o
#        C:\SiliconLabs\Thread-1.0.1\build\thread-stack-cortexm3-iar-em3588-em3xx\thread-stack.a
#        C:\SiliconLabs\Thread-1.0.1\app\Thread_Sample_Client\build\obj\token-def.o
#        C:\SiliconLabs\Thread-1.0.1\app\Thread_Sample_Client\build\obj\token.o
#        C:\SiliconLabs\Thread-1.0.1\app\Thread_Sample_Client\build\obj\uart.o
#        C:\SiliconLabs\Thread-1.0.1\app\Thread_Sample_Client\build\obj\udp-cli.o
#        C:\SiliconLabs\Thread-1.0.1\app\Thread_Sample_Client\build\obj\version-debug.o
#        --redirect _Printf=_PrintfFull --redirect _Scanf=_ScanfFull -o
#        C:\SiliconLabs\Thread-1.0.1\app\Thread_Sample_Client\build\exe\Thread_Sample_Client.out
#        --config_def APP_BTL=1 --map
#        C:\SiliconLabs\Thread-1.0.1\app\Thread_Sample_Client\build\lst\Thread_Sample_Client.map
#        --log initialization,modules,sections,veneers --log_file
#        C:\SiliconLabs\Thread-1.0.1\app\Thread_Sample_Client\build\lst\Thread_Sample_Client.log
#        --config
#        C:\SiliconLabs\Thread-1.0.1\app\Thread_Sample_Client\..\..\hal\micro\cortexm3\em35x\em3588\iar-cfg.icf
#        --diag_suppress Lp012 --entry halEntryPoint --vfe
#
###############################################################################

*******************************************************************************
*** RUNTIME MODEL ATTRIBUTES
***

CppFlavor                   = *
__SystemLibrary             = DLib
__dlib_jmp_buf_num_elements = 8


*******************************************************************************
*** PLACEMENT SUMMARY
***

"BAT": place at 0x08000000 { section BAT };
"HEADERS":
       place at start of [0x08004000-0x080040ff] { block HEADER_block };
"APP ro":
       place at start of [0x08004100-0x0807ffff] { block APPRO_block };
"NVM&SIMEE":
       place at end of [0x08004100-0x0807ffff] {
          zi section NVM, zi section SIMEE, zi section INTERNAL_STORAGE };
"FAT": place at 0x08080000 { section FAT };
"DEBUGCHAN":
       place at start of [0x2000fff0-0x2000ffff] { rw section DEBUG_CHANNEL };
"APP rw":
       place at end of [0x20000000-0x2000ffef] { block APPRW_block };
"Heap":
       place at start of [0x20000000-0x2000ffef] { overlay EMHEAP_overlay };
"Guard":
       place in [from 0x20000000 to 0x2000ffef] { rw section GUARD_REGION };

  Section                 Kind        Address     Size  Object
  -------                 ----        -------     ----  ------
"BAT":                                            0x54
  BAT                     uninit   0x08000000     0x54  cstartup-common.o [1]
                                 - 0x08000054     0x54

"HEADERS":                                        0xac
  HEADER_block                     0x08004000     0xac  <Block>
    AAT                   const    0x08004000     0xac  cstartup-common.o [1]
                                 - 0x080040ac     0xac

"APP ro":                                      0x2c058
  APPRO_block                      0x08004100  0x2c058  <Block>
    .intvec               const    0x08004100     0x90  cstartup-common.o [1]
    .text                          0x08004190  0x297ca  <Block>
      .text               ro code  0x08004190    0x2b4  adc.o [1]
      .text               ro code  0x08004444     0xec  micro-common.o [1]
      .text               ro code  0x08004530      0xc  spmr.o [4]
      .text               ro code  0x0800453c      0x6  spmr.o [4]
      .text               ro code  0x08004544    0x5d0  analogue.o [8]
      .text               ro code  0x08004b14      0xe  spmr.o [4]
      .text               ro code  0x08004b24    0x200  assert-crash-handlers.o [1]
      .text               ro code  0x08004d24    0x1c8  micro-common-internal.o [4]
      .text               ro code  0x08004eec    0x5c4  clocks.o [4]
      .text               ro code  0x080054b0     0xec  analogue-cell-bias.o [8]
      .text               ro code  0x0800559c     0x68  mfg-token.o [1]
      .text               ro code  0x08005604    0x110  token.o [1]
      .text               ro code  0x08005714    0x544  phy.o [8]
      .text               ro code  0x08005c58     0x50  analogue-filter.o [8]
      .text               ro code  0x08005ca8    0x818  phy-common.o [8]
      .text               ro code  0x080064c0    0x314  micro.o [1]
      .text               ro code  0x080067d4     0xd0  analogue-vco.o [8]
      .text               ro code  0x080068a4    0x274  analogue-mod-dac.o [8]
      .text               ro code  0x08006b18    0x1aa  analogue-lna.o [8]
      .text               ro code  0x08006cc4    0x124  caladc.o [4]
      .text               ro code  0x08006de8    0x2a8  debug.o [8]
      .text               ro code  0x08007090    0x2d4  serial.o [1]
      .text               ro code  0x08007364    0x188  micro-internal.o [4]
      .text               ro code  0x080074ec      0x6  ABImemclr4.o [6]
      .text               ro code  0x080074f4      0x4  spmr.o [4]
      .text               ro code  0x080074f8      0x8  context-switch.o [4]
      .text               ro code  0x08007500      0xe  spmr.o [4]
      .text               ro code  0x08007510      0x4  spmr.o [4]
      .text               ro code  0x08007514     0xf6  mem-util.o [1]
      .text               ro code  0x0800760c    0x12c  sim-eeprom.o [1]
      .text               ro code  0x08007738    0xb44  sim-eeprom-internal.o [7]
      .text               ro code  0x0800827c     0xa4  child-table.o [8]
      .text               ro code  0x08008320    0x24c  ip-mac-receive.o [8]
      .text               ro code  0x0800856c    0x184  mac-em250.o [8]
      .text               ro code  0x080086f0     0x8c  aes.o [8]
      .text               ro code  0x0800877c      0x8  abs.o [3]
      .text               ro code  0x08008784     0x48  random.o [1]
      .text               ro code  0x080087cc      0x8  spmr.o [4]
      .text               ro code  0x080087d4    0x580  sleep.o [1]
      .text               ro code  0x08008d54     0x24  eui64.o [8]
      .text               ro code  0x08008d78    0x468  uart.o [1]
      .text               ro code  0x080091e0    0x138  button.o [1]
      .text               ro code  0x08009318    0x2cc  debug-jtag.o [8]
      .text               ro code  0x080095e4     0xac  cstartup-common.o [1]
      .text               ro code  0x08009690    0x23c  serial-printf.o [1]
      .text               ro code  0x080098cc    0x138  byte-utilities.o [8]
      .text               ro code  0x08009a04    0xb68  buffer-management.o [8]
      .text               ro code  0x0800a56c     0x74  mpu.o [1]
      .text               ro code  0x0800a5e0     0x32  ABImemset48.o [6]
      .text               ro code  0x0800a614     0x66  ABImemset.o [6]
      .text               ro code  0x0800a67c    0x120  flash.o [4]
      .text               ro code  0x0800a79c     0xe4  thread-callback-stubs.o [1]
      .text               ro code  0x0800a880      0xe  wakeup-stubs.o [8]
      .text               ro code  0x0800a890    0xbf8  ip-stack.o [8]
      .text               ro code  0x0800b488    0x240  log.o [8]
      .text               ro code  0x0800b6c8    0x9e8  ip-mac-header.o [8]
      .text               ro code  0x0800c0b0    0x330  ip-packet-header.o [8]
      .text               ro code  0x0800c3e0   0x18cc  join.o [8]
      .text               ro code  0x0800dcac    0x35c  mac-arbiter.o [8]
      .text               ro code  0x0800e008    0x304  buffer-queue.o [8]
      .text               ro code  0x0800e30c    0x1a0  event-control.o [8]
      .text               ro code  0x0800e4ac     0x5c  symbol-timer.o [8]
      .text               ro code  0x0800e508    0x18c  mac.o [8]
      .text               ro code  0x0800e694     0x4c  context-switch.o [4]
      .text               ro code  0x0800e6e0    0x56c  em_usbd.o [1]
      .text               ro code  0x0800ec4c    0x178  system-timer.o [4]
      .text               ro code  0x0800edc4     0x24  crc.o [1]
      .text               ro code  0x0800ede8     0x42  strcmp_unaligned.o [6]
      .text               ro code  0x0800ee2c     0x4c  ember-ip-configuration.o [1]
      .text               ro code  0x0800ee78    0x470  802-15-4-ccm.o [8]
      .text               ro code  0x0800f2e8    0x5b4  mac-indirect.o [8]
      .text               ro code  0x0800f89c    0x220  retry.o [8]
      .text               ro code  0x0800fabc    0x710  fragment.o [8]
      .text               ro code  0x080101cc    0x364  udp.o [8]
      .text               ro code  0x08010530    0x18c  context-table.o [8]
      .text               ro code  0x080106bc     0x48  thread-bookkeeping.o [1]
      .text               ro code  0x08010704    0x304  event-queue.o [8]
      .text               ro code  0x08010a08    0xb4c  coap.o [8]
      .text               ro code  0x08011554    0x998  jpake-ecc-mbedtls.o [8]
      .text               ro code  0x08011eec     0xc4  mark-list.o [8]
      .text               ro code  0x08011fb0    0x898  rip.o [8]
      .text               ro code  0x08012848   0x2584  mle.o [8]
      .text               ro code  0x08014dcc    0x4c4  distributed-key-management.o [8]
      .text               ro code  0x08015290     0x90  unicast-table.o [8]
      .text               ro code  0x08015320    0x740  child-data.o [8]
      .text               ro code  0x08015a60    0x250  multicast.o [8]
      .text               ro code  0x08015cb0    0x574  global-prefix.o [8]
      .text               ro code  0x08016224    0x358  address-cache.o [8]
      .text               ro code  0x0801657c   0x1b28  commission.o [8]
      .text               ro code  0x080180a4    0xd94  network-data.o [8]
      .text               ro code  0x08018e38    0x3f8  child-aging.o [8]
      .text               ro code  0x08019230    0x2b4  ip-address.o [8]
      .text               ro code  0x080194e4     0x50  mac-header-util.o [8]
      .text               ro code  0x08019534     0x12  phy-util.o [8]
      .text               ro code  0x08019548    0x148  main.o [1]
      .text               ro code  0x08019690   0x13e4  dispatch.o [8]
      .text               ro code  0x0801aa74     0x70  global-address-prefix-debug.o [1]
      .text               ro code  0x0801aae4    0xe1c  rip-neighbor.o [8]
      .text               ro code  0x0801b900    0x8bc  client-implementation.o [1]
      .text               ro code  0x0801c1bc   0x11ac  6lowpan-header.o [8]
      .text               ro code  0x0801d368    0x468  network-fragmentation.o [8]
      .text               ro code  0x0801d7d0    0x48c  scan.o [8]
      .text               ro code  0x0801dc5c    0x764  dtls-join.o [8]
      .text               ro code  0x0801e3c0    0x318  command.o [8]
      .text               ro code  0x0801e6d8    0x224  scan-debug.o [1]
      .text               ro code  0x0801e8fc    0x520  coap-soc.o [8]
      .text               ro code  0x0801ee1c    0x30c  router-selection.o [8]
      .text               ro code  0x0801f128    0x1f4  jit.o [8]
      .text               ro code  0x0801f31c     0x84  em_usbtimer.o [1]
      .text               ro code  0x0801f3a0     0xcc  em_usbhal.o [1]
      .text               ro code  0x0801f46c     0x94  version-debug.o [1]
      .text               ro code  0x0801f500    0x354  tls-record-util.o [8]
      .text               ro code  0x0801f854    0x3a0  connection.o [8]
      .text               ro code  0x0801fbf4    0x560  dtls.o [8]
      .text               ro code  0x08020154     0x52  udp-simple.o [8]
      .text               ro code  0x080201a8   0x12c8  dhcp.o [8]
      .text               ro code  0x08021470    0x45c  command-interpreter2-util.o [1]
      .text               ro code  0x080218cc      0xc  tftp-bootload.o [1]
      .text               ro code  0x080218d8     0x3c  cli.o [1]
      .text               ro code  0x08021914     0x24  heartbeat.o [1]
      .text               ro code  0x08021938     0xa4  idle-sleep.o [1]
      .text               ro code  0x080219dc    0x1f0  list.o [8]
      .text               ro code  0x08021bcc    0x124  buffer-malloc.o [8]
      .text               ro code  0x08021cf0   0x1c5c  ecp.o [8]
      .text               ro code  0x0802394c    0xfa8  ecp_curves.o [8]
      .text               ro code  0x080248f4   0x15a8  bignum.o [8]
      .text               ro code  0x08025e9c    0x410  sha256.o [8]
      .text               ro code  0x080262ac      0x6  ABImemclr.o [6]
      .text               ro code  0x080262b4    0x3b8  transport-header.o [8]
      .text               ro code  0x0802666c    0x994  address-management.o [8]
      .text               ro code  0x08027000     0x76  ABImemcpy_unaligned.o [6]
      .text               ro code  0x08027078     0xd0  dhcp-client.o [1]
      .text               ro code  0x08027148     0x58  address-configuration-debug.o [1]
      .text               ro code  0x080271a0     0x62  memcmp_unaligned.o [6]
      .text               ro code  0x08027204     0x36  strlen.o [6]
      .text               ro code  0x0802723a     0x2a  strncmp.o [3]
      .text               ro code  0x08027264    0x5ac  local-server-data.o [8]
      .text               ro code  0x08027810    0x92c  diagnostic.o [1]
      .text               ro code  0x0802813c    0x15e  association.o [8]
      .text               ro code  0x0802829c    0x568  ip-header.o [8]
      .text               ro code  0x08028804     0xfc  icmp.o [8]
      .text               ro code  0x08028900      0xe  tcp-stub.o [8]
      .text               ro code  0x08028910    0x104  icmp-debug.o [1]
      .text               ro code  0x08028a14    0x228  debug-print.o [1]
      .text               ro code  0x08028c3c    0x290  tftp-server.o [1]
      .text               ro code  0x08028ecc    0x54c  tftp-bootloader-server.o [1]
      .text               ro code  0x08029418   0x172c  tls-handshake.o [8]
      .text               ro code  0x0802ab44    0x560  tls-ccm-record.o [8]
      .text               ro code  0x0802b0a4     0xf4  tls-debug.o [8]
      .text               ro code  0x0802b198     0xd4  slaac-client.o [1]
      .text               ro code  0x0802b26c    0x124  dhcp-address-table.o [8]
      .text               ro code  0x0802b390    0x320  command-interpreter2.o [1]
      .text               ro code  0x0802b6b0     0x30  led.o [1]
      .text               ro code  0x0802b6e0     0xee  I64DivMod.o [6]
      .text               ro code  0x0802b7d0     0xd4  tftp.o [1]
      .text               ro code  0x0802b8a4     0x4a  tftp-15-4.o [1]
      .text               ro code  0x0802b8f0    0x19c  xstoul.o [3]
      .text               ro code  0x0802ba8c     0x94  tftp-bootloader.o [1]
      .text               ro code  0x0802bb20    0x174  bootloader-interface-app.o [1]
      .text               ro code  0x0802bc94     0x90  tls-session-state.o [8]
      .text               ro code  0x0802bd24    0x10c  tls-jpake.o [8]
      .text               ro code  0x0802be30    0x344  tls-handshake-crypto.o [8]
      .text               ro code  0x0802c174    0x2c8  command-interpreter2-error.o [1]
      .text               ro code  0x0802c43c      0x2  I64DivZer.o [6]
      .text               ro code  0x0802c440     0xe0  rand.o [3]
      .text               ro code  0x0802c520     0x58  memchr.o [6]
      .text               ro code  0x0802c578      0xc  errno.o [3]
      .text               ro code  0x0802c584      0x2  xtls.o [3]
      .text               ro code  0x0802c588     0xbc  buzzer.o [1]
      .text               ro code  0x0802c644     0xd0  coap-cli.o [1]
      .text               ro code  0x0802c714     0xae  em_usbdch9.o [1]
      .text               ro code  0x0802c7c4    0x2f4  em_usbdep.o [1]
      .text               ro code  0x0802cab8    0x270  em_usbint.o [1]
      .text               ro code  0x0802cd28      0x2  faults.o [1]
      .text               ro code  0x0802cd2c      0x2  faults.o [1]
      .text               ro code  0x0802cd30      0x2  faults.o [1]
      .text               ro code  0x0802cd34      0x2  faults.o [1]
      .text               ro code  0x0802cd38      0x2  faults.o [1]
      .text               ro code  0x0802cd3c      0x2  faults.o [1]
      .text               ro code  0x0802cd40     0x70  faults.o [1]
      .text               ro code  0x0802cdb0    0x128  icmp-cli.o [1]
      .text               ro code  0x0802ced8     0xb4  icmp-simple.o [8]
      .text               ro code  0x0802cf8c      0x0  isr-stubs.o [1]
      .text               ro code  0x0802cf8c      0x0  isr-stubs.o [1]
      .text               ro code  0x0802cf8c      0x0  isr-stubs.o [1]
      .text               ro code  0x0802cf8c      0x0  isr-stubs.o [1]
      .text               ro code  0x0802cf8c      0x0  isr-stubs.o [1]
      .text               ro code  0x0802cf8c      0x0  isr-stubs.o [1]
      .text               ro code  0x0802cf8c      0x0  isr-stubs.o [1]
      .text               ro code  0x0802cf8c      0x0  isr-stubs.o [1]
      .text               ro code  0x0802cf8c      0x0  isr-stubs.o [1]
      .text               ro code  0x0802cf8c      0x0  isr-stubs.o [1]
      .text               ro code  0x0802cf8c      0x0  isr-stubs.o [1]
      .text               ro code  0x0802cf8c      0x0  isr-stubs.o [1]
      .text               ro code  0x0802cf8c      0x0  isr-stubs.o [1]
      .text               ro code  0x0802cf8c      0x0  isr-stubs.o [1]
      .text               ro code  0x0802cf8c    0x65c  network-management-cli.o [1]
      .text               ro code  0x0802d5e8     0xd8  udp-cli.o [1]
      .text               ro code  0x0802d6c0    0x214  cstartup-iar.o [4]
      .text               ro code  0x0802d8d4     0x86  callbacks.o [1]
    .rodata               const    0x0802d95c     0x84  command-interpreter2-error.o [1]
    .rodata               const    0x0802d9e0    0x4f0  diagnostic.o [1]
    .rodata               const    0x0802ded0     0x10  ember-ip-configuration.o [1]
    .rodata               const    0x0802dee0      0x4  micro-common.o [1]
    .rodata               const    0x0802dee4     0xec  micro.o [1]
    .rodata               const    0x0802dfd0      0x8  serial.o [1]
    .rodata               const    0x0802dfd8     0x20  sim-eeprom.o [1]
    .rodata               const    0x0802dff8    0x4c4  thread-cli.o [1]
    .rodata               const    0x0802e4bc     0x18  thread-events.o [1]
    .rodata               const    0x0802e4d4     0xec  token-def.o [1]
    .rodata               const    0x0802e5c0     0xf8  uart.o [1]
    .rodata               const    0x0802e6b8     0x30  version-debug.o [1]
    .rodata               const    0x0802e6e8    0x11c  join.o [8]
    .rodata               const    0x0802e804    0x204  coap.o [8]
    .rodata               const    0x0802ea08     0x90  ip-stack.o [8]
    .rodata               const    0x0802ea98     0xac  dhcp.o [8]
    .rodata               const    0x0802eb44     0x30  commission.o [8]
    .rodata               const    0x0802eb74     0x20  local-server-data.o [8]
    .rodata               const    0x0802eb94     0x18  scan.o [8]
    .rodata               const    0x0802ebac     0xe4  log.o [8]
    .rodata               const    0x0802ec90     0x20  network-data.o [8]
    .rodata               const    0x0802ecb0     0x18  association.o [8]
    .rodata               const    0x0802ecc8     0x38  network-fragmentation.o [8]
    .rodata               const    0x0802ed00     0x20  global-prefix.o [8]
    .rodata               const    0x0802ed20    0x124  mle.o [8]
    .rodata               const    0x0802ee44     0x18  retry.o [8]
    .rodata               const    0x0802ee5c     0x40  rip.o [8]
    .rodata               const    0x0802ee9c     0x10  rip-neighbor.o [8]
    .rodata               const    0x0802eeac     0x30  ip-address.o [8]
    .rodata               const    0x0802eedc     0x34  child-aging.o [8]
    .rodata               const    0x0802ef10     0x24  router-selection.o [8]
    .rodata               const    0x0802ef34     0x10  address-cache.o [8]
    .rodata               const    0x0802ef44     0x20  mac-indirect.o [8]
    .rodata               const    0x0802ef64     0x1c  mac.o [8]
    .rodata               const    0x0802ef80     0x1c  fragment.o [8]
    .rodata               const    0x0802ef9c     0x1c  multicast.o [8]
    .rodata               const    0x0802efb8     0x24  jit.o [8]
    .rodata               const    0x0802efdc     0x20  unicast-table.o [8]
    .rodata               const    0x0802effc     0x28  connection.o [8]
    .rodata               const    0x0802f024    0x868  ecp_curves.o [8]
    .rodata               const    0x0802f88c     0x24  tls-test-credentials.o [8]
    .rodata               const    0x0802f8b0    0x478  tls-debug.o [8]
    .rodata               const    0x0802fd28     0x1a  mfg-token.o [1]
    .rodata               const    0x0802fd42      0x8  tls-ccm-record.o [8]
    .data_init                     0x0802fd4c    0x37c  <Block>
      Initializer bytes   ro data  0x0802fd4c    0x37c  <for .data-1> (used: 0x378)
    __DLIB_PERTHREAD_init
                                   0x080300c8     0x90  <Block>
      Initializer bytes   ro data  0x080300c8     0x90  <for DLIB_PERTHREAD_INITIALIZED_DATA-1>
                                 - 0x08030158  0x2c058

"NVM&SIMEE":                                    0x2000
  SIMEE                            0x0807e000   0x2000  <Block>
    SIMEE                 uninit   0x0807e000   0x2000  sim-eeprom.o [1]
                                 - 0x08080000   0x2000

"FAT":                                            0x2c
  FAT                     uninit   0x08080000     0x2c  cstartup-common.o [1]
                                 - 0x0808002c     0x2c

"Heap":                                         0x1780
  EMHEAP_overlay                   0x20000000   0x1770  <Overlay>
    part 1:
      EMHEAP                       0x20000000   0x1770  <Block>
        EMHEAP            uninit   0x20000000   0x1770  ember-ip-configuration.o [1]
    part 2:
      RESETINFO                    0x20000000     0x98  <Block>
        RESETINFO         const    0x20000000      0x0  faults.o [1]
        RESETINFO         const    0x20000000      0x0  isr-stubs.o [1]
        RESETINFO         const    0x20000000      0x0  spmr.o [4]
        RESETINFO         const    0x20000000      0x0  context-switch.o [4]
        RESETINFO         uninit   0x20000000     0x98  cstartup-common.o [1]
                                 - 0x20001770   0x1770

"Guard":                                          0x20
  GUARD_REGION            uninit   0x20001780     0x20  cstartup-common.o [1]
                                 - 0x200017a0     0x20

"APP rw":                                       0x2dd9
  APPRW_block                      0x2000d210   0x2dd9  <Block>
    ALIGN_CSTACK                   0x2000d210    0xed8  <Block>
      CSTACK                       0x2000d210    0xed8  <Block>
        CSTACK            const    0x2000d210      0x0  faults.o [1]
        CSTACK            const    0x2000d210      0x0  isr-stubs.o [1]
        CSTACK            const    0x2000d210      0x0  spmr.o [4]
        CSTACK            const    0x2000d210      0x0  context-switch.o [4]
        CSTACK            uninit   0x2000d210    0xed8  cstartup-common.o [1]
    .data                          0x2000e0e8    0x378  <Block>
      .data-1                      0x2000e0e8    0x378  <Init block>
        .data             inited   0x2000e0e8      0x1  buzzer.o [1]
        .data             inited   0x2000e0e9      0x1  debug-print.o [1]
        .data             inited   0x2000e0ec      0x4  em_usbd.o [1]
        .data             inited   0x2000e0f0     0x1c  em_usbhal.o [1]
        .data             inited   0x2000e10c     0x1c  em_usbhal.o [1]
        .data             inited   0x2000e128     0x1c  em_usbhal.o [1]
        .data             inited   0x2000e144     0x1c  em_usbhal.o [1]
        .data             inited   0x2000e160      0x1  ember-ip-configuration.o [1]
        .data             inited   0x2000e164      0x4  ember-ip-configuration.o [1]
        .data             inited   0x2000e168      0x4  ember-ip-configuration.o [1]
        .data             inited   0x2000e16c      0x4  ember-ip-configuration.o [1]
        .data             inited   0x2000e170      0x4  ember-ip-configuration.o [1]
        .data             inited   0x2000e174      0x4  ember-ip-configuration.o [1]
        .data             inited   0x2000e178      0x4  ember-ip-configuration.o [1]
        .data             inited   0x2000e17c      0x4  ember-ip-configuration.o [1]
        .data             inited   0x2000e180      0x4  ember-ip-configuration.o [1]
        .data             inited   0x2000e184      0x1  ember-ip-configuration.o [1]
        .data             inited   0x2000e186      0x2  ember-ip-configuration.o [1]
        .data             inited   0x2000e188      0x4  ember-ip-configuration.o [1]
        .data             inited   0x2000e18c      0x1  ember-ip-configuration.o [1]
        .data             inited   0x2000e18d      0x1  ember-ip-configuration.o [1]
        .data             inited   0x2000e190     0x10  micro.o [1]
        .data             inited   0x2000e1a0     0x10  micro.o [1]
        .data             inited   0x2000e1b0     0x40  mpu.o [1]
        .data             inited   0x2000e1f0      0x4  random.o [1]
        .data             inited   0x2000e1f4     0x20  serial.o [1]
        .data             inited   0x2000e214      0x6  tftp.o [1]
        .data             inited   0x2000e21c     0x24  uart.o [1]
        .data             inited   0x2000e240      0x2  analogue.o [8]
        .data             inited   0x2000e244      0xe  analogue.o [8]
        .data             inited   0x2000e254      0x4  micro-internal.o [4]
        .data             inited   0x2000e258     0x20  join.o [8]
        .data             inited   0x2000e278      0x4  coap.o [8]
        .data             inited   0x2000e27c      0x1  ip-stack.o [8]
        .data             inited   0x2000e280      0x8  ip-stack.o [8]
        .data             inited   0x2000e288      0xc  ip-stack.o [8]
        .data             inited   0x2000e294      0x2  dhcp.o [8]
        .data             inited   0x2000e296      0x6  clocks.o [4]
        .data             inited   0x2000e29c      0xc  commission.o [8]
        .data             inited   0x2000e2a8      0xc  local-server-data.o [8]
        .data             inited   0x2000e2b4      0x8  dtls-join.o [8]
        .data             inited   0x2000e2bc      0x1  distributed-key-management.o [8]
        .data             inited   0x2000e2c0     0x10  scan.o [8]
        .data             inited   0x2000e2d0      0x2  transport-header.o [8]
        .data             inited   0x2000e2d2      0x4  dispatch.o [8]
        .data             inited   0x2000e2d6      0x2  dispatch.o [8]
        .data             inited   0x2000e2d8      0x4  buffer-management.o [8]
        .data             inited   0x2000e2dc      0x4  analogue-mod-dac.o [8]
        .data             inited   0x2000e2e0      0x1  phy-common.o [8]
        .data             inited   0x2000e2e2      0xc  phy-common.o [8]
        .data             inited   0x2000e2f0      0xc  network-data.o [8]
        .data             inited   0x2000e2fc      0x1  command.o [8]
        .data             inited   0x2000e300      0xc  association.o [8]
        .data             inited   0x2000e30c      0x1  association.o [8]
        .data             inited   0x2000e30e      0x2  child-data.o [8]
        .data             inited   0x2000e310     0x1c  network-fragmentation.o [8]
        .data             inited   0x2000e32c      0xc  global-prefix.o [8]
        .data             inited   0x2000e338     0x10  mle.o [8]
        .data             inited   0x2000e348      0x1  mle.o [8]
        .data             inited   0x2000e34c     0x14  mle.o [8]
        .data             inited   0x2000e360      0xc  retry.o [8]
        .data             inited   0x2000e36c     0x1c  rip.o [8]
        .data             inited   0x2000e388      0x1  child-aging.o [8]
        .data             inited   0x2000e38c     0x1c  child-aging.o [8]
        .data             inited   0x2000e3a8      0x4  child-aging.o [8]
        .data             inited   0x2000e3ac     0x10  router-selection.o [8]
        .data             inited   0x2000e3bc      0xc  address-cache.o [8]
        .data             inited   0x2000e3c8      0x8  dhcp-address-table.o [8]
        .data             inited   0x2000e3d0      0x1  mac-em250.o [8]
        .data             inited   0x2000e3d4      0xc  mac-indirect.o [8]
        .data             inited   0x2000e3e0      0xc  mac.o [8]
        .data             inited   0x2000e3ec     0x10  fragment.o [8]
        .data             inited   0x2000e3fc      0xc  multicast.o [8]
        .data             inited   0x2000e408     0x10  jit.o [8]
        .data             inited   0x2000e418      0xc  unicast-table.o [8]
        .data             inited   0x2000e424      0x8  6lowpan-header.o [8]
        .data             inited   0x2000e42c      0x1  6lowpan-header.o [8]
        .data             inited   0x2000e42d      0x1  address-management.o [8]
        .data             inited   0x2000e430      0xc  connection.o [8]
        .data             inited   0x2000e43c      0x1  ip-mac-header.o [8]
        .data             inited   0x2000e440      0x4  ecp_curves.o [8]
        .data             inited   0x2000e444      0x8  ecp_curves.o [8]
        .data             inited   0x2000e44c      0x8  ecp_curves.o [8]
        .data             inited   0x2000e454      0x8  ecp_curves.o [8]
        .data             inited   0x2000e45c      0x4  tls-test-credentials.o [8]
    DLIB_PERTHREAD_INITIALIZED_DATA
                                   0x2000e460     0x90  <Block>
      DLIB_PERTHREAD_INITIALIZED_DATA-1
                                   0x2000e460     0x90  <Init block>
        __DLIB_PERTHREAD  inited   0x2000e460     0x8c  rand.o [3]
        __DLIB_PERTHREAD  inited   0x2000e4ec      0x4  errno.o [3]
    DLIB_PERTHREAD_ZERO_DATA
                                   0x2000e4f0      0x0  <Block>
    .bss                           0x2000e4f0   0x1af9  <Block>
      .bss                uninit   0x2000e4f0    0x570  em_usbhal.o [1]
      .bss                uninit   0x2000ea60     0x1e  adc.o [1]
      .bss                uninit   0x2000ea7e      0x2  debug-print.o [1]
      .bss                uninit   0x2000ea80     0x18  bootloader-interface-app.o [1]
      .bss                uninit   0x2000ea98    0x160  bootloader-interface-app.o [1]
      .bss                uninit   0x2000ebf8     0x80  bootloader-interface-app.o [1]
      .bss                uninit   0x2000ec78      0x8  buzzer.o [1]
      .bss                uninit   0x2000ec80     0x1c  client-implementation.o [1]
      .bss                uninit   0x2000ec9c     0x84  command-interpreter2-util.o [1]
      .bss                uninit   0x2000ed20      0xa  cstartup-common.o [1]
      .bss                uninit   0x2000ed2a      0x2  tftp-bootloader.o [1]
      .bss                uninit   0x2000ed2c     0xf0  em_usbd.o [1]
      .bss                uninit   0x2000ee1c      0xc  em_usbdep.o [1]
      .bss                uninit   0x2000ee28      0x4  em_usbhal.o [1]
      .bss                uninit   0x2000ee2c      0x4  em_usbint.o [1]
      .bss                uninit   0x2000ee30     0x10  em_usbtimer.o [1]
      .bss                uninit   0x2000ee40     0x20  ember-ip-configuration.o [1]
      .bss                uninit   0x2000ee60     0x24  ember-ip-configuration.o [1]
      .bss                uninit   0x2000ee84     0x88  ember-ip-configuration.o [1]
      .bss                uninit   0x2000ef0c     0x40  ember-ip-configuration.o [1]
      .bss                uninit   0x2000ef4c     0x40  ember-ip-configuration.o [1]
      .bss                uninit   0x2000ef8c     0x40  ember-ip-configuration.o [1]
      .bss                uninit   0x2000efcc     0x20  ember-ip-configuration.o [1]
      .bss                uninit   0x2000efec     0x20  ember-ip-configuration.o [1]
      .bss                uninit   0x2000f00c     0x24  ember-ip-configuration.o [1]
      .bss                uninit   0x2000f030      0x4  heartbeat.o [1]
      .bss                uninit   0x2000f034      0x4  micro.o [1]
      .bss                uninit   0x2000f038     0x88  serial.o [1]
      .bss                uninit   0x2000f0c0     0x88  serial.o [1]
      .bss                uninit   0x2000f148     0x88  serial.o [1]
      .bss                uninit   0x2000f1d0     0x88  serial.o [1]
      .bss                uninit   0x2000f258     0x88  serial.o [1]
      .bss                uninit   0x2000f2e0     0x88  serial.o [1]
      .bss                uninit   0x2000f368      0xc  serial.o [1]
      .bss                uninit   0x2000f374     0x38  sim-eeprom.o [1]
      .bss                uninit   0x2000f3ac      0x4  sleep.o [1]
      .bss                uninit   0x2000f3b0     0x14  tftp-bootloader-server.o [1]
      .bss                uninit   0x2000f3c4     0x10  tftp.o [1]
      .bss                uninit   0x2000f3d4      0xc  uart.o [1]
      .bss                uninit   0x2000f3e0     0x24  analogue.o [8]
      .bss                uninit   0x2000f404      0x8  debug.o [8]
      .bss                uninit   0x2000f40c      0xc  debug.o [8]
      .bss                uninit   0x2000f418     0x50  join.o [8]
      .bss                uninit   0x2000f468     0x50  join.o [8]
      .bss                uninit   0x2000f4b8      0x4  coap.o [8]
      .bss                uninit   0x2000f4bc      0xc  ip-stack.o [8]
      .bss                uninit   0x2000f4c8      0x4  ip-stack.o [8]
      .bss                uninit   0x2000f4cc      0xc  dhcp.o [8]
      .bss                uninit   0x2000f4d8    0x100  debug-jtag.o [8]
      .bss                uninit   0x2000f5d8     0x1c  commission.o [8]
      .bss                uninit   0x2000f5f4      0xc  local-server-data.o [8]
      .bss                uninit   0x2000f600     0x24  dtls-join.o [8]
      .bss                uninit   0x2000f624     0xb0  distributed-key-management.o [8]
      .bss                uninit   0x2000f6d4     0x20  scan.o [8]
      .bss                uninit   0x2000f6f4      0x4  sim-eeprom-internal.o [7]
      .bss                uninit   0x2000f6f8      0xc  context-switch.o [4]
      .bss                uninit   0x2000f704      0x4  dispatch.o [8]
      .bss                uninit   0x2000f708     0x10  dispatch.o [8]
      .bss                uninit   0x2000f718      0x8  dispatch.o [8]
      .bss                uninit   0x2000f720     0x24  buffer-management.o [8]
      .bss                uninit   0x2000f744      0xc  log.o [8]
      .bss                uninit   0x2000f750    0x11c  phy.o [8]
      .bss                uninit   0x2000f86c      0xc  phy-common.o [8]
      .bss                uninit   0x2000f878      0xc  eui64.o [8]
      .bss                uninit   0x2000f884      0xe  network-data.o [8]
      .bss                uninit   0x2000f892      0x2  tftp.o [1]
      .bss                uninit   0x2000f894     0x30  association.o [8]
      .bss                uninit   0x2000f8c4      0xc  network-fragmentation.o [8]
      .bss                uninit   0x2000f8d0      0xc  network-fragmentation.o [8]
      .bss                uninit   0x2000f8dc     0x19  network-fragmentation.o [8]
      .bss                uninit   0x2000f8f5      0x3  analogue-vco.o [8]
      .bss                uninit   0x2000f8f8     0x10  global-prefix.o [8]
      .bss                uninit   0x2000f908     0x10  mac-arbiter.o [8]
      .bss                uninit   0x2000f918      0xc  mle.o [8]
      .bss                uninit   0x2000f924     0x10  mle.o [8]
      .bss                uninit   0x2000f934     0x40  retry.o [8]
      .bss                uninit   0x2000f974      0x8  retry.o [8]
      .bss                uninit   0x2000f97c      0xc  rip.o [8]
      .bss                uninit   0x2000f988    0x500  rip.o [8]
      .bss                uninit   0x2000fe88      0xc  rip-neighbor.o [8]
      .bss                uninit   0x2000fe94     0x10  ip-address.o [8]
      .bss                uninit   0x2000fea4      0x8  child-aging.o [8]
      .bss                uninit   0x2000feac      0xc  ip-mac-receive.o [8]
      .bss                uninit   0x2000feb8      0x8  mac-em250.o [8]
      .bss                uninit   0x2000fec0      0x8  mac-indirect.o [8]
      .bss                uninit   0x2000fec8      0x4  jpake-ecc-mbedtls.o [8]
      .bss                uninit   0x2000fecc      0x4  802-15-4-ccm.o [8]
      .bss                uninit   0x2000fed0     0x14  unicast-table.o [8]
      .bss                uninit   0x2000fee4      0x4  connection.o [8]
      .bss                uninit   0x2000fee8      0xc  ecp.o [8]
      .bss                uninit   0x2000fef4      0x8  buffer-malloc.o [8]
      .bss                uninit   0x2000fefc      0x6  analogue.o [8]
      .bss                uninit   0x2000ff02      0x2  coap.o [8]
      .bss                uninit   0x2000ff04      0x4  ip-stack.o [8]
      .bss                uninit   0x2000ff08      0x4  sim-eeprom-internal.o [7]
      .bss                uninit   0x2000ff0c      0x2  mark-list.o [8]
      .bss                uninit   0x2000ff0e      0x4  analogue-mod-dac.o [8]
      .bss                uninit   0x2000ff12      0x2  child-data.o [8]
      .bss                uninit   0x2000ff14      0x2  network-fragmentation.o [8]
      .bss                uninit   0x2000ff16      0x4  mac-indirect.o [8]
      .bss                uninit   0x2000ff1a     0x80  mac.o [8]
      .bss                uninit   0x2000ff9a      0x4  fragment.o [8]
      .bss                uninit   0x2000ff9e      0x4  fragment.o [8]
      .bss                uninit   0x2000ffa2      0x4  udp.o [8]
      .bss                uninit   0x2000ffa6      0x6  multicast.o [8]
      .bss                uninit   0x2000ffac      0x4  jit.o [8]
      .bss                uninit   0x2000ffb0      0x4  tls-session-state.o [8]
      .bss                uninit   0x2000ffb4      0x2  button.o [1]
      .bss                uninit   0x2000ffb6      0x1  em_usbhal.o [1]
      .bss                uninit   0x2000ffb7      0x2  main.o [1]
      .bss                uninit   0x2000ffb9      0x1  micro-common.o [1]
      .bss                uninit   0x2000ffba      0x1  tftp.o [1]
      .bss                uninit   0x2000ffbb      0x1  thread-callback-stubs.o [1]
      .bss                uninit   0x2000ffbc      0x2  token.o [1]
      .bss                uninit   0x2000ffbe      0x1  analogue.o [8]
      .bss                uninit   0x2000ffbf      0x2  analogue.o [8]
      .bss                uninit   0x2000ffc1      0x1  micro-common-internal.o [4]
      .bss                uninit   0x2000ffc2      0x2  event-control.o [8]
      .bss                uninit   0x2000ffc4      0x1  join.o [8]
      .bss                uninit   0x2000ffc5      0x1  dhcp.o [8]
      .bss                uninit   0x2000ffc6      0x1  system-timer.o [4]
      .bss                uninit   0x2000ffc7      0x1  flash.o [4]
      .bss                uninit   0x2000ffc8      0x5  clocks.o [4]
      .bss                uninit   0x2000ffcd      0x1  debug-jtag.o [8]
      .bss                uninit   0x2000ffce      0x1  debug-jtag.o [8]
      .bss                uninit   0x2000ffcf      0x1  commission.o [8]
      .bss                uninit   0x2000ffd0      0x1  dispatch.o [8]
      .bss                uninit   0x2000ffd1      0x1  dispatch.o [8]
      .bss                uninit   0x2000ffd2      0x1  dispatch.o [8]
      .bss                uninit   0x2000ffd3      0x2  phy.o [8]
      .bss                uninit   0x2000ffd5      0x2  phy.o [8]
      .bss                uninit   0x2000ffd7      0x1  phy.o [8]
      .bss                uninit   0x2000ffd8      0x1  phy-common.o [8]
      .bss                uninit   0x2000ffd9      0x1  phy-common.o [8]
      .bss                uninit   0x2000ffda      0x1  phy-common.o [8]
      .bss                uninit   0x2000ffdb      0x1  command.o [8]
      .bss                uninit   0x2000ffdc      0x2  command.o [8]
      .bss                uninit   0x2000ffde      0x1  mac-arbiter.o [8]
      .bss                uninit   0x2000ffdf      0x1  mac-arbiter.o [8]
      .bss                uninit   0x2000ffe0      0x2  mle.o [8]
      .bss                uninit   0x2000ffe2      0x2  router-selection.o [8]
      .bss                uninit   0x2000ffe4      0x1  context-table.o [8]
      .bss                uninit   0x2000ffe5      0x1  mac-em250.o [8]
      .bss                uninit   0x2000ffe6      0x1  mac.o [8]
      .bss                uninit   0x2000ffe7      0x1  6lowpan-header.o [8]
      .bss                uninit   0x2000ffe8      0x1  address-management.o [8]
                                 - 0x2000ffe9   0x2dd9

"DEBUGCHAN":                                      0x10
  DEBUG_CHANNEL                    0x2000fff0     0x10  <Block>
    DEBUG_CHANNEL         uninit   0x2000fff0     0x10  debug-jtag.o [8]
                                 - 0x20010000     0x10



*******************************************************************************
*** MODULE SUMMARY
***

    Module                         ro code  ro data  rw data
    ------                         -------  -------  -------
C:\SiliconLabs\Thread-1.0.1\app\Thread_Sample_Client\build\obj: [1]
    adc.o                              692                30
    address-configuration-debug.o       88
    assert-crash-handlers.o            512
    bootloader-interface-app.o         372               504
    button.o                           312                 2
    buzzer.o                           188        1        9
    callbacks.o                        134
    cli.o                               60
    client-implementation.o          2 236                28
    coap-cli.o                         208
    command-interpreter2-error.o       712      132
    command-interpreter2-util.o      1 116               132
    command-interpreter2.o             800
    crc.o                               36
    cstartup-common.o                  172      316    3 970
    debug-print.o                      552        1        3
    dhcp-client.o                      208
    diagnostic.o                     2 348    1 264
    em_usbd.o                        1 388        6      244
    em_usbdch9.o                       174
    em_usbdep.o                        756                12
    em_usbhal.o                        204      112    1 509
    em_usbint.o                        624                 4
    em_usbtimer.o                      132                16
    ember-ip-configuration.o            76       62      538
    faults.o                           124
    global-address-prefix-debug.o      112
    heartbeat.o                         36                 4
    icmp-cli.o                         296
    icmp-debug.o                       260
    idle-sleep.o                       164
    isr-stubs.o
    led.o                               48
    main.o                             328                 2
    mem-util.o                         246
    mfg-token.o                        104       26
    micro-common.o                     236        4        1
    micro.o                            788      270       36
    mpu.o                              116       64       64
    network-management-cli.o         1 628
    random.o                            72        4        4
    scan-debug.o                       548
    serial-printf.o                    572
    serial.o                           724       40      860
    sim-eeprom.o                       300       32    8 248
    slaac-client.o                     212
    sleep.o                          1 408                 4
    tftp-15-4.o                         74
    tftp-bootload.o                     12
    tftp-bootloader-server.o         1 356                20
    tftp-bootloader.o                  148                 2
    tftp-server.o                      656
    tftp.o                             212        6       25
    thread-bookkeeping.o                72
    thread-callback-stubs.o            228                 1
    thread-cli.o                              1 220
    thread-events.o                              24
    token-def.o                                 236
    token.o                            272                 2
    uart.o                           1 128      286       48
    udp-cli.o                          216
    version-debug.o                    148       48
    --------------------------------------------------------
    Total:                          26 944    4 154   16 322

command line: [2]
    --------------------------------------------------------
    Total:

dl7M_tln.a: [3]
    abs.o                                8
    errno.o                             12        4        4
    rand.o                             224      140      140
    strncmp.o                           42
    xstoul.o                           412
    xtls.o                               2
    --------------------------------------------------------
    Total:                             700      144      144

hal-library.a: [4]
    caladc.o                           292
    clocks.o                         1 476        6       11
    context-switch.o                    84                12
    cstartup-iar.o                     532
    flash.o                            288                 1
    micro-common-internal.o            456                 1
    micro-internal.o                   392        6        4
    spmr.o                              62
    system-timer.o                     376                 1
    --------------------------------------------------------
    Total:                           3 958       12       30

m7M_tl.a: [5]
    --------------------------------------------------------
    Total:

rt7M_tl.a: [6]
    ABImemclr.o                          6
    ABImemclr4.o                         6
    ABImemcpy_unaligned.o              118
    ABImemset.o                        102
    ABImemset48.o                       50
    I64DivMod.o                        238
    I64DivZer.o                          2
    memchr.o                            88
    memcmp_unaligned.o                  98
    strcmp_unaligned.o                  66
    strlen.o                            54
    --------------------------------------------------------
    Total:                             828

sim-eeprom1-library.a: [7]
    sim-eeprom-internal.o            2 884                 8
    --------------------------------------------------------
    Total:                           2 884                 8

thread-stack.a: [8]
    6lowpan-header.o                 4 524        9       10
    802-15-4-ccm.o                   1 136                 4
    address-cache.o                    856       28       12
    address-management.o             2 452        1        2
    aes.o                              140
    analogue-cell-bias.o               236
    analogue-filter.o                   80
    analogue-lna.o                     426
    analogue-mod-dac.o                 628        4        8
    analogue-vco.o                     208                 3
    analogue.o                       1 488       18       61
    association.o                      350       40       61
    bignum.o                         5 544
    buffer-malloc.o                    292                 8
    buffer-management.o              2 920        4       40
    buffer-queue.o                     772
    byte-utilities.o                   312
    child-aging.o                    1 016       88       41
    child-data.o                     1 856        3        4
    child-table.o                      164
    coap-soc.o                       1 312
    coap.o                           2 892      520       10
    command.o                          792        1        4
    commission.o                     6 952       60       41
    connection.o                       928       54       16
    context-table.o                    396                 1
    debug-jtag.o                       716               274
    debug.o                            680                20
    dhcp-address-table.o               292        8        8
    dhcp.o                           4 808      174       15
    dispatch.o                       5 092        6       37
    distributed-key-management.o     1 220        1      177
    dtls-join.o                      1 892        8       44
    dtls.o                           1 376
    ecp.o                            7 260                12
    ecp_curves.o                     4 008    2 183       28
    eui64.o                             36                12
    event-control.o                    416                 2
    event-queue.o                      772
    fragment.o                       1 808       44       24
    global-prefix.o                  1 396       44       28
    icmp-simple.o                      180
    icmp.o                             252
    ip-address.o                       692       48       16
    ip-header.o                      1 384
    ip-mac-header.o                  2 536        1        1
    ip-mac-receive.o                   588                12
    ip-packet-header.o                 816
    ip-stack.o                       3 064      168       41
    jit.o                              500       52       20
    join.o                           6 348      316      193
    jpake-ecc-mbedtls.o              2 456                 4
    list.o                             496
    local-server-data.o              1 452       44       24
    log.o                              576      228       12
    mac-arbiter.o                      860                18
    mac-em250.o                        388        1       10
    mac-header-util.o                   80
    mac-indirect.o                   1 460       47       24
    mac.o                              396       40      141
    mark-list.o                        196                 2
    mle.o                            9 604      332       67
    multicast.o                        592       40       18
    network-data.o                   3 476       46       26
    network-fragmentation.o          1 128       84       79
    phy-common.o                     2 072       14       28
    phy-util.o                          18
    phy.o                            1 348               289
    retry.o                            544       36       84
    rip-neighbor.o                   3 612       16       12
    rip.o                            2 200       92    1 320
    router-selection.o                 780       52       18
    scan.o                           1 164       43       48
    sha256.o                         1 040
    symbol-timer.o                      92
    tcp-stub.o                          14
    tls-ccm-record.o                 1 376        8
    tls-debug.o                        244    1 144
    tls-handshake-crypto.o             836
    tls-handshake.o                  5 932
    tls-jpake.o                        268
    tls-record-util.o                  852
    tls-session-state.o                144                 4
    tls-test-credentials.o                       40        4
    transport-header.o                 952        2        2
    udp-simple.o                        82
    udp.o                              868                 4
    unicast-table.o                    144       44       32
    wakeup-stubs.o                      14
    --------------------------------------------------------
    Total:                         134 560    6 236    3 560

    Gaps                                56        2       41
    Linker created                                4    6 000
------------------------------------------------------------
    Grand Total:                   169 930   10 552   26 105


*******************************************************************************
*** ENTRY LIST
***

Entry                      Address    Size  Type      Object
-----                      -------    ----  ----      ------
.bss$$Base              0x2000e4f0           --   Gb  - Linker created -
.bss$$Length            0x00001af9           --   Gb  - Linker created -
.bss$$Limit             0x2000ffe9           --   Gb  - Linker created -
.data$$Base             0x2000e0e8           --   Gb  - Linker created -
.data$$Limit            0x2000e460           --   Gb  - Linker created -
.data_init$$Base        0x0802fd4c           --   Gb  - Linker created -
.data_init$$Length      0x0000037c           --   Gb  - Linker created -
.data_init$$Limit       0x080300c8           --   Gb  - Linker created -
.noinit$$Base           0x00000000           --   Gb  - Linker created -
.text$$Base             0x08004190           --   Gb  - Linker created -
.text$$Limit            0x0802d95a           --   Gb  - Linker created -
.textrw$$Base           0x00000000           --   Gb  - Linker created -
.textrw_init$$Base      0x00000000           --   Gb  - Linker created -
.textrw_init$$Length    0x00000000           --   Gb  - Linker created -
ALIGN_CSTACK$$Base      0x2000d210           --   Gb  - Linker created -
ALIGN_CSTACK$$Limit     0x2000e0e8           --   Gb  - Linker created -
APPRO_block$$Base       0x08004100           --   Gb  - Linker created -
APPRO_block$$Limit      0x08030158           --   Gb  - Linker created -
APPRW_block$$Base       0x2000d210           --   Gb  - Linker created -
APPRW_block$$Limit      0x2000ffe9           --   Gb  - Linker created -
APP_RAM$$Base           0x00000000           --   Gb  - Linker created -
APP_RAM$$Length         0x00000000           --   Gb  - Linker created -
CSTACK$$Base            0x2000d210           --   Gb  - Linker created -
CSTACK$$Limit           0x2000e0e8           --   Gb  - Linker created -
DEBUG_CHANNEL$$Base     0x2000fff0           --   Gb  - Linker created -
DEBUG_CHANNEL$$Limit    0x20010000           --   Gb  - Linker created -
DLIB_PERTHREAD_INITIALIZED_DATA$$Base
                        0x2000e460           --   Gb  - Linker created -
DLIB_PERTHREAD_INITIALIZED_DATA$$Limit
                        0x2000e4f0           --   Gb  - Linker created -
DLIB_PERTHREAD_ZERO_DATA$$Base
                        0x2000e4f0           --   Gb  - Linker created -
DLIB_PERTHREAD_ZERO_DATA$$Length
                        0x00000000           --   Gb  - Linker created -
DLIB_PERTHREAD_ZERO_DATA$$Limit
                        0x2000e4f0           --   Gb  - Linker created -
EMHEAP$$Base            0x20000000           --   Gb  - Linker created -
EMHEAP$$Limit           0x20001770           --   Gb  - Linker created -
EMHEAP_overlay$$Base    0x20000000           --   Gb  - Linker created -
EMHEAP_overlay$$Limit   0x20001770           --   Gb  - Linker created -
EPINBUF                 0x2000e10c    0x1c  Data  Gb  em_usbhal.o [1]
EPINBUFSIZE             0x2000e144    0x1c  Data  Gb  em_usbhal.o [1]
EPOUTBUF                0x2000e0f0    0x1c  Data  Gb  em_usbhal.o [1]
EPOUTBUFSIZE            0x2000e128    0x1c  Data  Gb  em_usbhal.o [1]
ERASE_CRITICAL_THRESHOLD
                        0x0802dfe4     0x2  Data  Gb  sim-eeprom.o [1]
GetDescriptor           0x0802c759    0x6a  Code  Lc  em_usbdch9.o [1]
HEADER_block$$Base      0x08004000           --   Gb  - Linker created -
HEADER_block$$Limit     0x080040ac           --   Gb  - Linker created -
ID_COUNT                0x0802dfe6     0x2  Data  Gb  sim-eeprom.o [1]
INTERNAL_STORAGE$$Base  0x00000000           --   Gb  - Linker created -
LEFT_BASE               0x0802dfdc     0x2  Data  Gb  sim-eeprom.o [1]
LEFT_TOP                0x0802dfde     0x2  Data  Gb  sim-eeprom.o [1]
Nvdd                    0x2000ea66     0x2  Data  Lc  adc.o [1]
Nvss                    0x2000ea7c     0x2  Data  Lc  adc.o [1]
PTR_CACHE_SIZE          0x0802dfe8     0x2  Data  Gb  sim-eeprom.o [1]
REAL_PAGES_PER_VIRTUAL  0x0802dfd8     0x1  Data  Gb  sim-eeprom.o [1]
REAL_PAGE_SIZE          0x0802dfda     0x2  Data  Gb  sim-eeprom.o [1]
RESETINFO$$Base         0x20000000           --   Gb  - Linker created -
RESETINFO$$Limit        0x20000098           --   Gb  - Linker created -
RIGHT_BASE              0x0802dfe0     0x2  Data  Gb  sim-eeprom.o [1]
RIGHT_TOP               0x0802dfe2     0x2  Data  Gb  sim-eeprom.o [1]
Region$$Table$$Base     0x00000000           --   Gb  - Linker created -
Region$$Table$$Limit    0x00000000           --   Gb  - Linker created -
SC1_UARTCFG_SAVED       0x2000f3dc     0x4  Data  Lc  uart.o [1]
SC1_UARTFRAC_SAVED      0x2000f3d8     0x4  Data  Lc  uart.o [1]
SC1_UARTPER_SAVED       0x2000f3d4     0x4  Data  Lc  uart.o [1]
SIMEE$$Base             0x0807e000           --   Gb  - Linker created -
SIMEE$$Limit            0x08080000           --   Gb  - Linker created -
SetupCmd                0x0802d8d5    0x6a  Code  Gb  callbacks.o [1]
TOKEN_IP_STACK_MAC_EXTENDED_ID_DEFAULTS
                        0x0802e52c     0x8  Data  Gb  token-def.o [1]
TOKEN_IP_STACK_MESH_LOCAL_INTERFACE_ID_DEFAULTS
                        0x0802e524     0x8  Data  Gb  token-def.o [1]
TOKEN_IP_STACK_MULTICAST_SEQUENCE_DEFAULTS
                        0x0802e51c     0x4  Data  Gb  token-def.o [1]
TOKEN_IP_STACK_NODE_DATA_DEFAULTS
                        0x0802e58c     0x4  Data  Gb  token-def.o [1]
TOKEN_IP_STACK_PARENT_LONG_ID_DEFAULTS
                        0x0802e534     0x8  Data  Gb  token-def.o [1]
TOKEN_IP_STACK_SECURITY_SEQUENCE_DEFAULTS
                        0x0802e520     0x4  Data  Gb  token-def.o [1]
TOKEN_IP_STACK_THREAD_DATA_DEFAULTS
                        0x0802e53c    0x50  Data  Gb  token-def.o [1]
TOKEN_MFG_1V8_REG_VOLTAGE
                        0x0802fd30     0x2  Data  Gb  mfg-token.o [1]
TOKEN_MFG_ANALOG_TRIM_BOOST
                        0x0802fd2a     0x2  Data  Gb  mfg-token.o [1]
TOKEN_MFG_ANALOG_TRIM_BOTH
                        0x0802fd2c     0x2  Data  Gb  mfg-token.o [1]
TOKEN_MFG_ANALOG_TRIM_NORMAL
                        0x0802fd28     0x2  Data  Gb  mfg-token.o [1]
TOKEN_MFG_CCA_THRESHOLD
                        0x0802fd3e     0x2  Data  Gb  mfg-token.o [1]
TOKEN_MFG_EUI_64        0x0802fd40     0x2  Data  Gb  mfg-token.o [1]
TOKEN_MFG_FIB_VERSION   0x0802fd34     0x2  Data  Gb  mfg-token.o [1]
TOKEN_MFG_OSC24M_BIAS_TRIM
                        0x0802fd38     0x2  Data  Gb  mfg-token.o [1]
TOKEN_MFG_OSC24M_SETTLE_DELAY
                        0x0802fd3c     0x2  Data  Gb  mfg-token.o [1]
TOKEN_MFG_PHY_CONFIG    0x0802fd36     0x2  Data  Gb  mfg-token.o [1]
TOKEN_MFG_REG_TRIM      0x0802fd2e     0x2  Data  Gb  mfg-token.o [1]
TOKEN_MFG_SYNTH_FREQ_OFFSET
                        0x0802fd3a     0x2  Data  Gb  mfg-token.o [1]
TOKEN_MFG_TEMP_CAL      0x0802fd32     0x2  Data  Gb  mfg-token.o [1]
TOKEN_STACK_BOOT_COUNTER_DEFAULTS
                        0x0802e514     0x4  Data  Gb  token-def.o [1]
TOKEN_STACK_CAL_DATA_DEFAULTS
                        0x0802e590     0x4  Data  Gb  token-def.o [1]
TOKEN_STACK_NONCE_COUNTER_DEFAULTS
                        0x0802e518     0x4  Data  Gb  token-def.o [1]
TOKEN_STACK_NVDATA_VERSION_DEFAULTS
                        0x0802e510     0x2  Data  Gb  token-def.o [1]
UNRETAINED_RAM$$Length  0x00000000           --   Gb  - Linker created -
USBDCH9_SetupCmd        0x0802c715    0x3e  Code  Gb  em_usbdch9.o [1]
USBDEP_Ep0Handler       0x0802c883   0x144  Code  Gb  em_usbdep.o [1]
USBDEP_EpHandler        0x0802c9cf    0xc4  Code  Gb  em_usbdep.o [1]
USBDHAL_Connect         0x0801f3a1    0x20  Code  Gb  em_usbhal.o [1]
USBDHAL_CoreInit        0x0801f3c1    0x34  Code  Gb  em_usbhal.o [1]
USBDHAL_EpIsStalled     0x0800e6fb    0x10  Code  Lc  em_usbd.o [1]
USBDHAL_ReenableEp0Setup
                        0x0802c7cd     0x2  Code  Lc  em_usbdep.o [1]
USBDHAL_StallEp         0x0802c7d5    0x1e  Code  Lc  em_usbdep.o [1]
USBDHAL_StartEp0Setup   0x0802c7c5     0x8  Code  Lc  em_usbdep.o [1]
USBDHAL_StartEp0Setup   0x0802cab9     0xc  Code  Lc  em_usbint.o [1]
USBDHAL_UnStallEp       0x0802cac5    0x20  Code  Lc  em_usbint.o [1]
USBD_ArmEp              0x0800e70b    0x80  Code  Lc  em_usbd.o [1]
USBD_ArmEp              0x0802c7f3    0x5a  Code  Lc  em_usbdep.o [1]
USBD_ArmEp0             0x0802c84d    0x34  Code  Lc  em_usbdep.o [1]
USBD_EpIsBusy           0x0800e7f7    0x1a  Code  Gb  em_usbd.o [1]
USBD_GetEpFromAddr      0x0800e78b    0x38  Code  Lc  em_usbd.o [1]
USBD_GetEpFromAddr      0x0802cae5    0x36  Code  Lc  em_usbint.o [1]
USBD_GetUsbState        0x0800e7ed     0xa  Code  Gb  em_usbd.o [1]
USBD_Init               0x0800e823   0x200  Code  Gb  em_usbd.o [1]
USBD_ReArmEp0           0x0802c881     0x2  Code  Lc  em_usbdep.o [1]
USBD_Read               0x0800ead1    0x94  Code  Gb  em_usbd.o [1]
USBD_SetUsbState        0x0800e7c3    0x2a  Code  Gb  em_usbd.o [1]
USBD_Write              0x0800ea37    0x9a  Code  Gb  em_usbd.o [1]
USBHAL_DisableGlobalInt
                        0x0800e6e1    0x1a  Code  Lc  em_usbd.o [1]
USBTIMER_Init           0x0801f31d    0x6c  Code  Gb  em_usbtimer.o [1]
_Rand_idx               0x2000e468     0x4  Data  Lc  rand.o [3]
_Rand_rv                0x2000e46c    0x80  Data  Lc  rand.o [3]
_Randinit               0x2000e460     0x1  Data  Gb  rand.o [3]
_Randseed               0x2000e464     0x4  Data  Gb  rand.o [3]
__DLIB_PERTHREAD_init$$Base
                        0x080300c8           --   Gb  - Linker created -
__DLIB_PERTHREAD_init$$Length
                        0x00000090           --   Gb  - Linker created -
__DLIB_PERTHREAD_init$$Limit
                        0x08030158           --   Gb  - Linker created -
__aeabi_errno_addr      0x0802c579     0x6  Code  Gb  errno.o [3]
__aeabi_ldiv0           0x0802c43d          Code  Gb  I64DivZer.o [6]
__aeabi_memclr          0x080262ad          Code  Gb  ABImemclr.o [6]
__aeabi_memclr4         0x080074ed          Code  Gb  ABImemclr4.o [6]
__aeabi_memset          0x0800a615          Code  Gb  ABImemset.o [6]
__aeabi_uldivmod        0x0802b6e1          Code  Gb  I64DivMod.o [6]
__iar_Errno             0x2000e4ec     0x4  Data  Gb  errno.o [3]
__iar_Memchr            0x0802c521          Code  Gb  memchr.o [6]
__iar_Memset            0x0800a615          Code  Gb  ABImemset.o [6]
__iar_Memset4_word      0x0800a5e1          Code  Gb  ABImemset48.o [6]
__iar_Memset8_word      0x0800a5e1          Code  Gb  ABImemset48.o [6]
__iar_Memset_word       0x0800a61d          Code  Gb  ABImemset.o [6]
__iar_Stoul             0x0802ba39     0x4  Code  Gb  xstoul.o [3]
__iar_Stoulx            0x0802b8f1   0x142  Code  Gb  xstoul.o [3]
__iar_dlib_perthread_access
                        0x0802c585     0x2  Code  Gb  xtls.o [3]
__iar_strcmp            0x0800ede9          Code  Gb  strcmp_unaligned.o [6]
__iar_unaligned___aeabi_memcpy
                        0x08027001          Code  Gb  ABImemcpy_unaligned.o [6]
__iar_unaligned___aeabi_memcpy4
                        0x08027021          Code  Gb  ABImemcpy_unaligned.o [6]
__iar_unaligned___aeabi_memcpy8
                        0x08027021          Code  Gb  ABImemcpy_unaligned.o [6]
__iar_unaligned_memcmp  0x080271a1          Code  Gb  memcmp_unaligned.o [6]
__iar_unaligned_strcmp  0x0800ede9          Code  Gb  strcmp_unaligned.o [6]
__vector_table          0x08004100    0x90  Data  Gb  cstartup-common.o [1]
_basePriIsDisabled      0x08004b15          Code  Gb  spmr.o [4]
_clearPriMask           0x08007511          Code  Gb  spmr.o [4]
_disableBasePri         0x08004531          Code  Gb  spmr.o [4]
_enableBasePri          0x080087cd          Code  Gb  spmr.o [4]
_executeBarrierInstructions
                        0x08007501          Code  Gb  spmr.o [4]
_macTransmitBuffer      0x2000ff1a    0x80  Data  Gb  mac.o [8]
_setPriMask             0x080074f5          Code  Gb  spmr.o [4]
_writeBasePri           0x0800453d          Code  Gb  spmr.o [4]
abs                     0x0800877d     0x8  Code  Gb  abs.o [3]
acceptLeaseQuery        0x2000e294     0x1  Data  Lc  dhcp.o [8]
acceptParentRequest     0x2000e338     0x1  Data  Lc  mle.o [8]
acceptSolicit           0x2000e295     0x1  Data  Lc  dhcp.o [8]
activeScanHandler       0x0800cbfd   0x266  Code  Lc  join.o [8]
adcCalibrated           0x2000ea63     0x1  Data  Lc  adc.o [1]
adcConfig               0x2000ea74     0x8  Data  Lc  adc.o [1]
adcData                 0x2000ea64     0x2  Data  Lc  adc.o [1]
adcPendingConversion    0x2000ea61     0x1  Data  Lc  adc.o [1]
adcPendingRequests      0x2000ea60     0x1  Data  Lc  adc.o [1]
adcReadingValid         0x2000ea62     0x1  Data  Lc  adc.o [1]
adcReadings             0x2000ea6c     0x8  Data  Lc  adc.o [1]
adcStaticConfig         0x2000ea68     0x2  Data  Lc  adc.o [1]
add32                   0x08023e43    0x14  Code  Lc  ecp_curves.o [8]
add64                   0x08023d77    0x32  Code  Lc  ecp_curves.o [8]
addCommissioner         0x08016d39    0x50  Code  Lc  commission.o [8]
addCookie               0x080298d3   0x12e  Code  Lc  tls-handshake.o [8]
addDatagramBuffer       0x0800fce3    0xd6  Code  Lc  fragment.o [8]
addDelayed              0x0800f8bf    0x6e  Code  Lc  retry.o [8]
addDuid                 0x08020441    0x26  Code  Lc  dhcp.o [8]
addEchoedAddressRegistration
                        0x080144b5    0x2a  Code  Lc  mle.o [8]
addHeader               0x080204bf    0x38  Code  Lc  dhcp.o [8]
addIaaddr               0x08020467    0x32  Code  Lc  dhcp.o [8]
addInt16uTlv            0x08012a79     0xc  Code  Lc  mle.o [8]
addInt32uTlv            0x08012a8f    0x16  Code  Lc  mle.o [8]
addInt8uTlv             0x08012a71     0x8  Code  Lc  mle.o [8]
addMessageHistoryEntry  0x08010f0b    0x20  Code  Lc  coap.o [8]
addPrefixTlv            0x08027469    0x4a  Code  Lc  local-server-data.o [8]
addResponseTlv          0x08012aad    0x1a  Code  Lc  mle.o [8]
addServiceTlv           0x08027265    0x42  Code  Lc  local-server-data.o [8]
addToLength             0x0802989f    0x18  Code  Lc  tls-handshake.o [8]
addVendorOptsHeader     0x08020499    0x26  Code  Lc  dhcp.o [8]
add_count               0x2000fee8     0x4  Data  Lc  ecp.o [8]
addressMatchingEnabled  0x2000e2e3     0x1  Data  Lc  phy-common.o [8]
addressQueryHandler     0x080266dd   0x12a  Code  Lc  address-management.o [8]
addressQueryResponseHandler
                        0x0802667f    0x5e  Code  Lc  address-management.o [8]
addressRegistrationState
                        0x2000f901     0x1  Data  Lc  global-prefix.o [8]
addressReleaseHandler   0x080268e7    0x2e  Code  Lc  address-management.o [8]
addressSolicitHandler   0x08026811    0xd6  Code  Lc  address-management.o [8]
addressTableSearch      0x08015625    0x5c  Code  Lc  child-data.o [8]
adjustListLocation      0x0801078d    0x92  Code  Lc  event-queue.o [8]
adjustLna               0x08006b19     0x8  Code  Lc  analogue-lna.o [8]
adjustVco               0x080067d5    0x22  Code  Lc  analogue-vco.o [8]
afsrBits                0x08028028    0x10  Data  Lc  diagnostic.o [1]
allowIdling             0x2000ffc2     0x1  Data  Lc  event-control.o [8]
amCommissioner          0x2000f5d9     0x1  Data  Lc  commission.o [8]
amGateway               0x2000f5da     0x1  Data  Lc  commission.o [8]
amalgamateQueue         0x2000f73c     0x4  Data  Lc  buffer-management.o [8]
arePageCountersOkay     0x0800786d    0x3e  Code  Lc  sim-eeprom-internal.o [7]
asynchronousHeapLimit   0x2000f740     0x4  Data  Lc  buffer-management.o [8]
attachCommand           0x0801bc77    0x34  Code  Gb  client-implementation.o [1]
attachFailed            0x0800d4f5    0xca  Code  Lc  join.o [8]
attachStateNames        0x0800dc8c    0x20  Data  Gb  join.o [8]
attachToServer          0x0801bc27    0x44  Code  Lc  client-implementation.o [1]
autoAckEnabled          0x2000e2e4     0x1  Data  Lc  phy-common.o [8]
baseHeaderLength        0x08019524    0x10  Data  Lc  mac-header-util.o [8]
baudSettings            0x080091cc    0x14  Data  Gb  uart.o [1]
beaconEvent             0x2000e300     0xc  Data  Lc  association.o [8]
beaconEventActions      0x0802ecb8    0x10  Data  Lc  association.o [8]
beaconEventHandler      0x0802813d    0x30  Code  Lc  association.o [8]
biasTrim                0x2000e29a     0x2  Data  Gb  clocks.o [4]
bitmasks                0x2000e0e9     0x1  Data  Lc  debug-print.o [1]
blacklistEventActions   0x0801b8e0    0x10  Data  Lc  rip-neighbor.o [8]
blacklistEventHandler   0x0801aecd    0x20  Code  Lc  rip-neighbor.o [8]
blacklistEventMarker    0x0801aeed     0x2  Code  Lc  rip-neighbor.o [8]
boostTxPowerMax         0x2000e248     0x8  Data  Gb  analogue.o [8]
bootloadAction          0x2000f3b0     0x1  Data  Lc  tftp-bootloader-server.o [1]
bootloadEraseAddress    0x2000f3bc     0x4  Data  Lc  tftp-bootloader-server.o [1]
borderRouterHandlers    0x08018038    0x48  Data  Lc  commission.o [8]
borderRouterNodeId      0x2000f5f2     0x2  Data  Lc  commission.o [8]
bothTokSerialRegId      0x08005588     0x8  Data  Gb  analogue-cell-bias.o [8]
brGetHandler            0x0801764d     0x2  Code  Lc  commission.o [8]
brKeepAliveHandler      0x080175c3    0x68  Code  Lc  commission.o [8]
brPetitionHandler       0x08017521    0x8c  Code  Lc  commission.o [8]
brRelayTxHandler        0x08017669    0x62  Code  Lc  commission.o [8]
brSetHandler            0x0801764f    0x14  Code  Lc  commission.o [8]
brainpoolP256r1_a       0x0802f54c    0x20  Data  Lc  ecp_curves.o [8]
brainpoolP256r1_b       0x0802f56c    0x20  Data  Lc  ecp_curves.o [8]
brainpoolP256r1_gx      0x0802f58c    0x20  Data  Lc  ecp_curves.o [8]
brainpoolP256r1_gy      0x0802f5ac    0x20  Data  Lc  ecp_curves.o [8]
brainpoolP256r1_n       0x0802f5cc    0x20  Data  Lc  ecp_curves.o [8]
brainpoolP256r1_p       0x0802f52c    0x20  Data  Lc  ecp_curves.o [8]
brainpoolP384r1_a       0x0802f61c    0x30  Data  Lc  ecp_curves.o [8]
brainpoolP384r1_b       0x0802f64c    0x30  Data  Lc  ecp_curves.o [8]
brainpoolP384r1_gx      0x0802f67c    0x30  Data  Lc  ecp_curves.o [8]
brainpoolP384r1_gy      0x0802f6ac    0x30  Data  Lc  ecp_curves.o [8]
brainpoolP384r1_n       0x0802f6dc    0x30  Data  Lc  ecp_curves.o [8]
brainpoolP384r1_p       0x0802f5ec    0x30  Data  Lc  ecp_curves.o [8]
brainpoolP512r1_a       0x0802f74c    0x40  Data  Lc  ecp_curves.o [8]
brainpoolP512r1_b       0x0802f78c    0x40  Data  Lc  ecp_curves.o [8]
brainpoolP512r1_gx      0x0802f7cc    0x40  Data  Lc  ecp_curves.o [8]
brainpoolP512r1_gy      0x0802f80c    0x40  Data  Lc  ecp_curves.o [8]
brainpoolP512r1_n       0x0802f84c    0x40  Data  Lc  ecp_curves.o [8]
brainpoolP512r1_p       0x0802f70c    0x40  Data  Lc  ecp_curves.o [8]
broadcastRetries        0x2000e408     0x1  Data  Lc  jit.o [8]
buff                    0x2000ebf8    0x80  Data  Lc  bootloader-interface-app.o [1]
bufferTracker           0x2000f728     0x2  Data  Lc  buffer-management.o [8]
bufferingMultiplier     0x0802e6a0     0x4  Data  Lc  uart.o [1]
button0State            0x2000ffb4     0x1  Data  Gb  button.o [1]
button1State            0x2000ffb5     0x1  Data  Gb  button.o [1]
cacheParameters         0x0800c515    0x7a  Code  Lc  join.o [8]
calAdcTempOffset        0x2000ffd4     0x1  Data  Lc  phy.o [8]
calAdcTempOffsetValid   0x2000ffd3     0x1  Data  Lc  phy.o [8]
calDisableAdc           0x08006d73     0xc  Code  Gb  caladc.o [4]
calModDacWithPaEnableMask
                        0x2000e2de     0x2  Data  Lc  analogue-mod-dac.o [8]
calModDacWithSpreading  0x2000e2dc     0x1  Data  Lc  analogue-mod-dac.o [8]
calReadAdcAtestAWithSpreading
                        0x080068b3    0xb6  Code  Lc  analogue-mod-dac.o [8]
calReadAdcBlocking      0x08006cfb    0x6c  Code  Gb  caladc.o [4]
calStartAdcConversion   0x08006cc5    0x36  Code  Gb  caladc.o [4]
calStartAndReadAdc      0x08006d67     0xc  Code  Gb  caladc.o [4]
calculateMic            0x0800ef2f    0xa6  Code  Lc  802-15-4-ccm.o [8]
callCommandAction       0x0802b52d   0x168  Code  Lc  command-interpreter2.o [1]
callResponseHandler     0x08010ac3    0x18  Code  Lc  coap.o [8]
callbacks               0x0802e6a4    0x14  Data  Lc  uart.o [1]
cancelEvents            0x08010719    0x10  Code  Lc  event-queue.o [8]
capabilityBytes         0x2000e34c     0x8  Data  Lc  mle.o [8]
ccaAttempt              0x2000f870     0x1  Data  Lc  phy-common.o [8]
cfsrBits                0x08027fc0    0x68  Data  Lc  diagnostic.o [1]
challenges16u           0x2000f924    0x10  Data  Lc  mle.o [8]
charDowncase            0x0802b51f     0xe  Code  Lc  command-interpreter2.o [1]
checkForSimEe2DataExistence
                        0x080078ab    0x5a  Code  Gb  sim-eeprom-internal.o [7]
checkScores             0x08018805    0xa2  Code  Lc  network-data.o [8]
checksum                0x080263a3    0x6c  Code  Lc  transport-header.o [8]
childAgingEvent         0x2000e39c     0xc  Data  Lc  child-aging.o [8]
childAgingEventActions  0x0802ef00    0x10  Data  Lc  child-aging.o [8]
childAgingEventHandler  0x08018fad   0x11a  Code  Lc  child-aging.o [8]
childFrameCounters      0x2000ef8c    0x40  Data  Lc  ember-ip-configuration.o [1]
childIdCounter          0x2000e30e     0x2  Data  Lc  child-data.o [8]
childIdTable            0x2000ee60    0x24  Data  Lc  ember-ip-configuration.o [1]
childIsExpectingMessageBitField
                        0x2000fec4     0x4  Data  Lc  mac-indirect.o [8]
childJitMessage         0x0801f1df    0x7c  Code  Lc  jit.o [8]
childLongIdTable        0x2000ee84    0x88  Data  Lc  ember-ip-configuration.o [1]
childPolledBitField     0x2000fec0     0x4  Data  Lc  mac-indirect.o [8]
childSecondSinceAttaching
                        0x2000efec    0x20  Data  Lc  ember-ip-configuration.o [1]
childStatus             0x2000ee40    0x20  Data  Lc  ember-ip-configuration.o [1]
childTimeouts           0x2000ef4c    0x40  Data  Lc  ember-ip-configuration.o [1]
childTimers             0x2000ef0c    0x40  Data  Lc  ember-ip-configuration.o [1]
childTransactionTimers  0x2000efcc    0x20  Data  Lc  ember-ip-configuration.o [1]
chosen                  0x2000f8dc    0x18  Data  Lc  network-fragmentation.o [8]
clearShortId            0x080163f5    0x20  Code  Lc  address-cache.o [8]
clientIdentity          0x08011edc     0x8  Data  Gb  jpake-ecc-mbedtls.o [8]
clientReportUri         0x0801c198    0x10  Data  Lc  client-implementation.o [1]
coapGetCommand          0x0802c647    0x42  Code  Gb  coap-cli.o [1]
coapPostCommand         0x0802c689    0x50  Code  Gb  coap-cli.o [1]
coapRespond             0x08011239    0xca  Code  Lc  coap.o [8]
coapTable               0x0802e1bc    0x30  Data  Lc  thread-cli.o [1]
commissionKey           0x2000f614    0x10  Data  Lc  dtls-join.o [8]
commissionKeyLength     0x2000f603     0x1  Data  Lc  dtls-join.o [8]
commissionerConnectionHandle
                        0x2000f5db     0x1  Data  Lc  commission.o [8]
commissionerHandlers    0x08018080    0x24  Data  Lc  commission.o [8]
commissionerMessageHandler
                        0x0801770b    0x2e  Code  Lc  commission.o [8]
commissionerPetitionResponseHandler
                        0x08017d51    0x6e  Code  Lc  commission.o [8]
commissionerTimeoutEvent
                        0x2000e29c     0xc  Data  Lc  commission.o [8]
commissionerTimeoutEventActions
                        0x0802eb64    0x10  Data  Lc  commission.o [8]
commissionerTimeoutEventHandler
                        0x080167a1    0x54  Code  Lc  commission.o [8]
commissioningMacKey     0x2000f4a8    0x10  Data  Lc  join.o [8]
commissioningMacKeyIsValid
                        0x2000f471     0x1  Data  Lc  join.o [8]
commissioningTable      0x0802e21c    0x30  Data  Lc  thread-cli.o [1]
compareLeaderData       0x0801862d    0x56  Code  Lc  network-data.o [8]
compareMessageHistoryEntry
                        0x08010ea5    0x10  Code  Lc  coap.o [8]
compareTlvs             0x08018b37    0x4c  Code  Lc  network-data.o [8]
compressPointer         0x08009a79    0x12  Code  Lc  buffer-management.o [8]
compressUnicastAddress  0x0801ca7b    0xe4  Code  Lc  6lowpan-header.o [8]
computeHash             0x08011b35    0xca  Code  Lc  jpake-ecc-mbedtls.o [8]
configDesc              0x0802e5d4    0x44  Data  Lc  uart.o [1]
connect                 0x08021bcd    0x42  Code  Lc  buffer-malloc.o [8]
connectionEvent         0x2000e430     0xc  Data  Lc  connection.o [8]
connectionEventActions  0x0802f014    0x10  Data  Lc  connection.o [8]
connectionEventHandler  0x0801f9db    0xcc  Code  Lc  connection.o [8]
connectivityCache       0x2000f480     0x4  Data  Lc  join.o [8]
convertInternalTo6lowpan
                        0x0801cb6b   0x424  Code  Lc  6lowpan-header.o [8]
convertIpv6HeaderToInternal
                        0x0801c3cb   0x5ba  Code  Lc  6lowpan-header.o [8]
convertUri              0x08017145    0x78  Code  Lc  commission.o [8]
copyBlock               0x080298b7    0x1c  Code  Lc  tls-handshake.o [8]
copyFragment            0x0800fdb9    0xa0  Code  Lc  fragment.o [8]
copyMessageHistoryEntry
                        0x08010eb5    0x30  Code  Lc  coap.o [8]
copyPrefixTlv           0x08018ba1    0xc2  Code  Lc  network-data.o [8]
copyTlv                 0x08018b83    0x1e  Code  Lc  network-data.o [8]
copyTokensToOtherPage   0x08007cb7   0x1bc  Code  Lc  sim-eeprom-internal.o [7]
costToLeaderCache       0x2000f469     0x1  Data  Lc  join.o [8]
countIncremarks         0x08008099    0x48  Code  Lc  sim-eeprom-internal.o [7]
cstackMemory            0x2000d210   0xed8  Data  Gb  cstartup-common.o [1]
currentCoapMessage      0x2000f4b8     0x4  Data  Lc  coap.o [8]
currentDuration         0x2000ec7a     0x2  Data  Gb  buzzer.o [1]
currentReceiveChannel   0x2000f751     0x1  Data  Lc  phy.o [8]
currentTune             0x2000ec7c     0x4  Data  Gb  buzzer.o [1]
currentUser             0x2000e2d8     0x4  Data  Lc  buffer-management.o [8]
dataState               0x2000f88f     0x1  Data  Lc  network-data.o [8]
dbl_count               0x2000feec     0x4  Data  Lc  ecp.o [8]
debugChannel            0x2000fff0    0x10  Data  Lc  debug-jtag.o [8]
debugChannelState       0x2000ffcd     0x1  Data  Lc  debug-jtag.o [8]
debugTraceOn            0x2000f404     0x1  Data  Lc  debug.o [8]
decodeDestination       0x0800b6c9    0x98  Code  Lc  ip-mac-header.o [8]
decrementLifetime       0x08015d85    0x2a  Code  Lc  global-prefix.o [8]
decrypt                 0x0800b761   0x216  Code  Lc  ip-mac-header.o [8]
delayCount              0x2000f974     0x1  Data  Lc  retry.o [8]
dequeueTxIntoBuffer     0x0800eb87    0x3c  Code  Gb  em_usbd.o [1]
deriveKeys              0x08014e9f    0x16  Code  Lc  distributed-key-management.o [8]
detachCommand           0x0801bde7    0x10  Code  Gb  client-implementation.o [1]
detachFromServer        0x0801bda7    0x3a  Code  Lc  client-implementation.o [1]
dev                     0x2000e0ec     0x4  Data  Gb  em_usbd.o [1]
device                  0x2000ed2c    0xf0  Data  Lc  em_usbd.o [1]
deviceDesc              0x0802e5c0    0x14  Data  Lc  uart.o [1]
deviceIsCoordinator     0x2000ffd8     0x1  Data  Lc  phy-common.o [8]
dhcpCommandNames        0x080201c8    0x40  Data  Lc  dhcp.o [8]
dheRsaSuiteIdentifier   0x0802fd44     0x2  Data  Gb  tls-ccm-record.o [8]
digits                  0x0802ba3c    0x28  Data  Lc  xstoul.o [3]
discardOuterIpv6Header  0x08019b6d    0x72  Code  Lc  dispatch.o [8]
discoveryEventActions   0x0801656c    0x10  Data  Lc  address-cache.o [8]
discoveryEventHandler   0x08016421    0x70  Code  Lc  address-cache.o [8]
discoveryEventMarker    0x08016225     0x2  Code  Lc  address-cache.o [8]
discoveryEventPredicate
                        0x08016227    0x10  Code  Lc  address-cache.o [8]
dropFlagCount           0x2000feae     0x2  Data  Lc  ip-mac-receive.o [8]
dropMemoryCount         0x2000feb0     0x2  Data  Lc  ip-mac-receive.o [8]
eblConfig               0x2000eb24    0xd4  Data  Gb  bootloader-interface-app.o [1]
ecdheEcdsaSuiteIdentifier
                        0x0802fd46     0x2  Data  Gb  tls-ccm-record.o [8]
ecp_add                 0x08022b09    0x32  Code  Gb  ecp.o [8]
ecp_add_mixed           0x08022747   0x32e  Code  Lc  ecp.o [8]
ecp_check_privkey       0x080238c9    0x64  Code  Gb  ecp.o [8]
ecp_check_pubkey        0x08023877    0x46  Code  Gb  ecp.o [8]
ecp_check_pubkey_sw     0x080236f9   0x168  Code  Lc  ecp.o [8]
ecp_cmp_ecp             0x08023173    0x32  Code  Gb  ecp.o [8]
ecp_comb_fixed          0x08022cc5    0x82  Code  Lc  ecp.o [8]
ecp_copy                0x08021e09    0x44  Code  Gb  ecp.o [8]
ecp_double_add_mxz      0x080231a5   0x322  Code  Lc  ecp.o [8]
ecp_double_jac          0x0802230f   0x3ce  Code  Lc  ecp.o [8]
ecp_get_type            0x08021cf1    0x14  Code  Lc  ecp.o [8]
ecp_group_free          0x08021d97    0x72  Code  Gb  ecp.o [8]
ecp_group_init          0x08021d1f    0x34  Code  Gb  ecp.o [8]
ecp_group_load          0x0802395b    0xb0  Code  Lc  ecp_curves.o [8]
ecp_mod_koblitz         0x08024693    0xac  Code  Lc  ecp_curves.o [8]
ecp_mod_p192            0x08023da9    0x6a  Code  Lc  ecp_curves.o [8]
ecp_mod_p192k1          0x080247a5     0xe  Code  Lc  ecp_curves.o [8]
ecp_mod_p224            0x08023e71   0x11a  Code  Lc  ecp_curves.o [8]
ecp_mod_p224k1          0x08024809     0xc  Code  Lc  ecp_curves.o [8]
ecp_mod_p255            0x08024601    0x80  Code  Lc  ecp_curves.o [8]
ecp_mod_p256            0x08023f8d   0x1c6  Code  Lc  ecp_curves.o [8]
ecp_mod_p256k1          0x08024849     0xe  Code  Lc  ecp_curves.o [8]
ecp_mod_p384            0x08024285   0x26a  Code  Lc  ecp_curves.o [8]
ecp_mod_p521            0x0802459d    0x64  Code  Lc  ecp_curves.o [8]
ecp_modp                0x08021f85    0x8a  Code  Lc  ecp.o [8]
ecp_mpi_set1            0x0802394d     0xe  Code  Gb  ecp_curves.o [8]
ecp_mul                 0x0802368f    0x5c  Code  Gb  ecp.o [8]
ecp_mul_comb            0x08022f09   0x1ac  Code  Lc  ecp.o [8]
ecp_mul_comb_core       0x08022e67    0x9c  Code  Lc  ecp.o [8]
ecp_mul_mxz             0x08023523   0x144  Code  Lc  ecp.o [8]
ecp_normalize_jac       0x0802200f    0x9e  Code  Lc  ecp.o [8]
ecp_normalize_jac_many  0x080220c1   0x1dc  Code  Lc  ecp.o [8]
ecp_point_free          0x08021d5b    0x20  Code  Gb  ecp.o [8]
ecp_point_init          0x08021d05    0x1a  Code  Gb  ecp.o [8]
ecp_point_mark          0x08021d7b    0x1c  Code  Gb  ecp.o [8]
ecp_point_read_binary   0x08021f17    0x6e  Code  Gb  ecp.o [8]
ecp_point_write_binary  0x08021e75    0xa2  Code  Gb  ecp.o [8]
ecp_precompute_comb     0x08022d47    0xb8  Code  Lc  ecp.o [8]
ecp_randomize_jac       0x08022bad    0xe2  Code  Lc  ecp.o [8]
ecp_randomize_mxz       0x080230b5    0x86  Code  Lc  ecp.o [8]
ecp_safe_invert_jac     0x080222d3    0x3c  Code  Lc  ecp.o [8]
ecp_select_comb         0x08022e09    0x5e  Code  Lc  ecp.o [8]
ecp_set_zero            0x08021e4d    0x28  Code  Gb  ecp.o [8]
ecp_sub                 0x08022b43    0x62  Code  Gb  ecp.o [8]
ecp_use_known_dp        0x08023a0d   0x31a  Code  Gb  ecp_curves.o [8]
edCcaThreshold          0x2000e2e5     0x1  Data  Lc  phy-common.o [8]
eepromState             0x2000ea98    0x8c  Data  Gb  bootloader-interface-app.o [1]
emActiveTaskCount       0x2000ffc3     0x1  Data  Lc  event-control.o [8]
emAddAddressData        0x080162e3    0x90  Code  Gb  address-cache.o [8]
emAddAddressRegistrationTlv
                        0x080144df    0xfc  Code  Gb  mle.o [8]
emAddDhcpClient         0x0802b2a9    0xa2  Code  Gb  dhcp-address-table.o [8]
emAddGlobalAddress      0x0801602b    0xda  Code  Gb  global-prefix.o [8]
emAddHmacPadding        0x080260c7    0x54  Code  Gb  sha256.o [8]
emAddInt16uTlv          0x080169f9    0x16  Code  Gb  commission.o [8]
emAddInt32uTlv          0x08016a0f    0x1a  Code  Gb  commission.o [8]
emAddLeaderData         0x0801819f    0x24  Code  Gb  network-data.o [8]
emAddLurkerNeighbor     0x0801ab43    0x44  Code  Gb  rip-neighbor.o [8]
emAddMarkingFunction    0x08011eed    0x66  Code  Gb  mark-list.o [8]
emAddNeighbor           0x0801ab19    0x2a  Code  Gb  rip-neighbor.o [8]
emAddNetworkDataTlv     0x0801841f    0x66  Code  Gb  network-data.o [8]
emAddTlv                0x08016a29    0x1e  Code  Gb  commission.o [8]
emAddToCounter          0x0801f5f3    0x24  Code  Gb  tls-record-util.o [8]
emAddUdpConnection      0x0801031b    0xb6  Code  Gb  udp.o [8]
emAddUnackedCoapMessage
                        0x08010a51    0x72  Code  Gb  coap.o [8]
emAddUnicastTableEntry  0x080152bd    0x28  Code  Gb  unicast-table.o [8]
emAddressCache          0x2000e3c0     0x8  Data  Gb  address-cache.o [8]
emAddressCacheInit      0x080163cb    0x16  Code  Gb  address-cache.o [8]
emAdvanceFragmentPointer
                        0x08010177    0x2a  Code  Gb  fragment.o [8]
emAesEncrypt            0x0800876b    0x12  Code  Gb  aes.o [8]
emAllocateIndirectBuffer
                        0x0800a29f    0x2c  Code  Gb  buffer-management.o [8]
emAllocateTlsBuffer     0x0801f643     0xc  Code  Gb  tls-record-util.o [8]
emAllocateTlsHandshakeBuffer
                        0x0801f64f    0xb8  Code  Gb  tls-record-util.o [8]
emAllocateTlsHeaderBuffer
                        0x0802ab97    0x44  Code  Gb  tls-ccm-record.o [8]
emAllocateTlsState      0x0801f757    0x5e  Code  Gb  tls-record-util.o [8]
emAmLeader              0x2000f88d     0x1  Data  Gb  network-data.o [8]
emAmThreadCommissioner  0x08017a27     0x8  Code  Gb  commission.o [8]
emAnyChildHasFlagsSet   0x080153f5    0x2a  Code  Gb  child-data.o [8]
emAppCommissionCompleteHandler
                        0x0800d069    0x22  Code  Gb  join.o [8]
emAppEvents             0x0802e4bc    0x18  Data  Gb  thread-events.o [1]
emAppTask               0x2000ffb8     0x1  Data  Gb  main.o [1]
emAssignRipId           0x0801af15    0xf2  Code  Gb  rip-neighbor.o [8]
emAssignRouterIdsInOrder
                        0x2000fe88     0x1  Data  Gb  rip-neighbor.o [8]
emAttachState           0x2000f46c     0x1  Data  Gb  join.o [8]
emAvailableMask         0x2000fe8c     0x8  Data  Gb  rip-neighbor.o [8]
emBeaconPayload         0x0801e6bd    0x1c  Code  Gb  command.o [8]
emBeaconPayloadBuffer   0x2000f898    0x2c  Data  Gb  association.o [8]
emBeaconPayloadSize     0x2000f894     0x1  Data  Gb  association.o [8]
emBecomeLeader          0x0800b26d    0x1c  Code  Gb  ip-stack.o [8]
emBootloadEvent         0x2000f3b4     0x8  Data  Gb  tftp-bootloader-server.o [1]
emBootloadEventHandler  0x08028f39    0xe0  Code  Gb  tftp-bootloader-server.o [1]
emBorderRouterMessageHandler
                        0x080176cb    0x2e  Code  Gb  commission.o [8]
emBufferBytesRemaining  0x08009a35    0x22  Code  Gb  buffer-management.o [8]
emBufferChainByteLength
                        0x0800a193    0x26  Code  Gb  buffer-management.o [8]
emBufferFree            0x08021c0f    0x34  Code  Gb  buffer-malloc.o [8]
emBufferMalloc          0x08021c43    0xa4  Code  Gb  buffer-malloc.o [8]
emBufferPointerToBuffer
                        0x0800a423    0x12  Code  Gb  buffer-management.o [8]
emBufferQueueAddToHead  0x0800e07d    0x12  Code  Gb  buffer-queue.o [8]
emBufferQueueIsEmpty    0x0800e009     0xa  Code  Gb  buffer-queue.o [8]
emBufferQueueLength     0x0800e013    0x22  Code  Gb  buffer-queue.o [8]
emBufferQueueNext       0x0800e08f    0x14  Code  Gb  buffer-queue.o [8]
emBufferUsage           0x08009ad5     0x8  Code  Gb  buffer-management.o [8]
emCallMarkFunctions     0x08011f53    0x46  Code  Gb  mark-list.o [8]
emCancelCommissioningKey
                        0x0800d435    0x1a  Code  Gb  join.o [8]
emCcmDecryptPacket      0x0800f1cd    0x66  Code  Gb  802-15-4-ccm.o [8]
emCcmEncrypt            0x0800f08f    0x48  Code  Gb  802-15-4-ccm.o [8]
emCcmEncryptPacket      0x0800f0d7    0x16  Code  Gb  802-15-4-ccm.o [8]
emChannelMaskCache      0x2000f47c     0x4  Data  Gb  join.o [8]
emChannelSettings       0x08004a84    0x40  Data  Gb  analogue.o [8]
emCheckAdditionalPendingData
                        0x0800f475    0x6c  Code  Gb  mac-indirect.o [8]
emCheckForIdleDtlsConnection
                        0x0801fded    0x18  Code  Gb  dtls.o [8]
emCheckRadioEvent       0x2000feb8     0x8  Data  Gb  mac-em250.o [8]
emChecksumPointer       0x080264c1    0x24  Code  Gb  transport-header.o [8]
emChildAddressTable     0x2000ff12     0x2  Data  Gb  child-data.o [8]
emChildAgingInit        0x08018e39     0x8  Code  Gb  child-aging.o [8]
emChildAttachDurationSec
                        0x2000e180     0x4  Data  Gb  ember-ip-configuration.o [1]
emChildCount            0x0801547f    0x28  Code  Gb  child-data.o [8]
emChildFrameCounters    0x2000e178     0x4  Data  Gb  ember-ip-configuration.o [1]
emChildIdTable          0x2000e168     0x4  Data  Gb  ember-ip-configuration.o [1]
emChildInit             0x08015321    0x98  Code  Gb  child-data.o [8]
emChildIsFrameCounterValid
                        0x080158e3    0x7c  Code  Gb  child-data.o [8]
emChildLastTransactionTimesSec
                        0x2000e17c     0x4  Data  Gb  ember-ip-configuration.o [1]
emChildLongIdTable      0x2000e16c     0x4  Data  Gb  ember-ip-configuration.o [1]
emChildSecondsSinceAttaching
                        0x08018f2f    0x28  Code  Gb  child-aging.o [8]
emChildSecondsSinceLastTransaction
                        0x08015603    0x22  Code  Gb  child-data.o [8]
emChildSetFrameCounter  0x08015883    0x40  Code  Gb  child-data.o [8]
emChildStatus           0x2000e164     0x4  Data  Gb  ember-ip-configuration.o [1]
emChildTimeouts         0x2000e174     0x4  Data  Gb  ember-ip-configuration.o [1]
emChildTimers           0x2000e170     0x4  Data  Gb  ember-ip-configuration.o [1]
emChildUsingOldKey      0x080158c3    0x20  Code  Gb  child-data.o [8]
emClearAddressCacheId   0x08016415     0xc  Code  Gb  address-cache.o [8]
emClearNeighbor         0x0801aca5    0x34  Code  Gb  rip-neighbor.o [8]
emClearNetworkKeys      0x08014dcd     0xc  Code  Gb  distributed-key-management.o [8]
emClearRoute            0x0801ace3    0x20  Code  Gb  rip-neighbor.o [8]
emCloseDtlsConnection   0x0801fead    0x3c  Code  Gb  dtls.o [8]
emCloseDtlsJoinConnection
                        0x0801dcc3    0x20  Code  Gb  dtls-join.o [8]
emCoapCommissionMessageHandler
                        0x08017335    0x7a  Code  Gb  commission.o [8]
emCoapIncomingMessageHandler
                        0x0801ec83    0x9c  Code  Gb  coap-soc.o [8]
emCoapInitialize        0x0801130b    0x18  Code  Gb  coap.o [8]
emCoapMarkBuffers       0x08010f2b    0x10  Code  Gb  coap.o [8]
emCoapMessageHandler    0x08017251    0x88  Code  Gb  commission.o [8]
emCoapRespondWithUri    0x08011307     0x4  Code  Gb  coap.o [8]
emCoapRetryEventActions
                        0x08011440    0x10  Data  Gb  coap.o [8]
emCommandReaderReinit   0x08021471    0x28  Code  Gb  command-interpreter2-util.o [1]
emCommandState          0x2000ec9c    0x84  Data  Gb  command-interpreter2-util.o [1]
emCommissionInit        0x0801680d    0x20  Code  Gb  commission.o [8]
emCommissioner          0x2000f5f0     0x2  Data  Gb  commission.o [8]
emCommissioningHandshakeComplete
                        0x0800d3f5    0x32  Code  Gb  join.o [8]
emCommissioningMessage  0x2000f478     0x2  Data  Gb  join.o [8]
emCompressContextPrefix
                        0x08010669    0x4c  Code  Gb  context-table.o [8]
emCompressMulticastAddress
                        0x0801c9c9    0xa2  Code  Gb  6lowpan-header.o [8]
emComputeDerivedKeys    0x0802bf15    0x36  Code  Gb  tls-handshake-crypto.o [8]
emConnectivityBucketCounts
                        0x0801b289    0x50  Code  Gb  rip-neighbor.o [8]
emContextTableInit      0x08010531     0x8  Code  Gb  context-table.o [8]
emConvert6lowpanToInternal
                        0x0801c1f3   0x194  Code  Gb  6lowpan-header.o [8]
emConvertInternalTo6lowpan
                        0x0801cfbf    0x18  Code  Gb  6lowpan-header.o [8]
emCopyFromGenericQueue  0x0800e18f    0x5a  Code  Gb  buffer-queue.o [8]
emCopyFromLinkedBuffers
                        0x0801f501    0x3e  Code  Gb  tls-record-util.o [8]
emCopyNetworkData       0x080180b1    0xde  Code  Gb  network-data.o [8]
emCsmaTransmit          0x0800856d    0x36  Code  Gb  mac-em250.o [8]
emCurrentIpSource       0x2000f714     0x4  Data  Gb  dispatch.o [8]
emCurrentMeshSource     0x2000e2d4     0x2  Data  Gb  dispatch.o [8]
emCurrentRssi           0x2000f70a     0x1  Data  Gb  dispatch.o [8]
emCustomLinkQualities   0x2000f980     0x8  Data  Gb  rip.o [8]
emDebugAddInitialFraming
                        0x08009417    0x18  Code  Gb  debug-jtag.o [8]
emDebugBinaryFormat     0x08006df3    0x10  Code  Gb  debug.o [8]
emDebugClearStats       0x08006ea5     0xa  Code  Gb  debug.o [8]
emDebugInit             0x08009319    0x38  Code  Gb  debug-jtag.o [8]
emDebugInternalBinaryPrintf
                        0x08006ebd   0x138  Code  Lc  debug.o [8]
emDebugPowerDown        0x08009351    0x54  Code  Gb  debug-jtag.o [8]
emDebugPowerUp          0x080093a5    0x62  Code  Gb  debug-jtag.o [8]
emDebugProcessIncoming  0x08006ff5    0x10  Code  Gb  debug.o [8]
emDebugResetInfo        0x08006e11    0x4e  Code  Gb  debug.o [8]
emDebugSend             0x080094f9    0x1a  Code  Gb  debug-jtag.o [8]
emDebugSendVuartMessage
                        0x08006e03     0xe  Code  Gb  debug.o [8]
emDebugStats            0x08006eaf     0xe  Code  Gb  debug.o [8]
emDecimalStringWrite    0x080096bb    0x58  Code  Gb  serial-printf.o [1]
emDefaultContextZero    0x2000ffe4     0x1  Data  Gb  context-table.o [8]
emDefaultEchoReplyPayloadSize
                        0x2000e2d6     0x2  Data  Gb  dispatch.o [8]
emDefaultRouteToUart    0x2000ffd1     0x1  Data  Gb  dispatch.o [8]
emDefaultSourceLongId   0x0802ea80     0x8  Data  Gb  ip-stack.o [8]
emDequeueNextIndirectPacket
                        0x0800f43b    0x32  Code  Gb  mac-indirect.o [8]
emDeriveKey             0x08014e3b    0x64  Code  Gb  distributed-key-management.o [8]
emDeriveKeys            0x0802bf4b   0x156  Code  Gb  tls-handshake-crypto.o [8]
emDhcpAddressTable      0x2000e3c8     0x8  Data  Gb  dhcp-address-table.o [8]
emDhcpIncomingMessageHandler
                        0x08020d53    0x1e  Code  Gb  dhcp.o [8]
emDropCallback          0x2000f704     0x4  Data  Gb  dispatch.o [8]
emDtlsConnectionTimeout
                        0x0801fd65    0x84  Code  Gb  dtls.o [8]
emDtlsJoinMode          0x2000f600     0x1  Data  Gb  dtls-join.o [8]
emDtlsJoinRequireCookie
                        0x2000e2b4     0x1  Data  Gb  dtls-join.o [8]
emDtlsStatusHandler     0x0801fee9   0x1e8  Code  Gb  dtls.o [8]
emElideUdpChecksum      0x2000ffe7     0x1  Data  Gb  6lowpan-header.o [8]
emEmptyPhyToMacQueue    0x0800a341     0x8  Code  Gb  buffer-management.o [8]
emEnableChildAging      0x2000e388     0x1  Data  Gb  child-aging.o [8]
emEnableMacDecryption   0x2000e43c     0x1  Data  Gb  ip-mac-header.o [8]
emEnableMacEncryption   0x2000e25a     0x1  Data  Gb  join.o [8]
emEncryptDataPolls      0x2000e2fc     0x1  Data  Gb  command.o [8]
emEndBufferSpaceReservation
                        0x0800a1ef     0x8  Code  Gb  buffer-management.o [8]
emEndBufferUsage        0x08009add     0xc  Code  Gb  buffer-management.o [8]
emEndDeviceRebootFailed
                        0x0800da9d    0x10  Code  Gb  join.o [8]
emEndDeviceRebootSuccess
                        0x0800da71    0x2c  Code  Gb  join.o [8]
emEnergyScanHandler     0x0800c77f    0x18  Code  Gb  join.o [8]
emEnergyScanResultsBuffer
                        0x2000f6e0     0x2  Data  Gb  scan.o [8]
emEraseChild            0x0801576d    0x74  Code  Gb  child-data.o [8]
emEventControlSetActive
                        0x0800e331    0x16  Code  Gb  event-control.o [8]
emEventControlSetDelayMS
                        0x0800e347    0x1a  Code  Gb  event-control.o [8]
emExpandSequenceNumber  0x08015163    0x20  Code  Gb  distributed-key-management.o [8]
emExtendedRetryCount    0x2000e2d3     0x1  Data  Gb  dispatch.o [8]
emExternalCommissionerKeepAlive
                        0x08017de9    0x44  Code  Gb  commission.o [8]
emFe8Prefix             0x080194bc     0x8  Data  Gb  ip-address.o [8]
emFetchInt32u           0x0800990b    0x28  Code  Gb  byte-utilities.o [8]
emFetchIpv6Header       0x0801d003    0x14  Code  Gb  6lowpan-header.o [8]
emFetchUdpHeader        0x08026577    0x44  Code  Gb  transport-header.o [8]
emFf02AllNodesMulticastAddress
                        0x080194c4    0x10  Data  Gb  ip-address.o [8]
emFf02AllRoutersMulticastAddress
                        0x0802eeac    0x10  Data  Gb  ip-address.o [8]
emFf03AllDhcpMulticastAddress
                        0x0802eecc    0x10  Data  Gb  ip-address.o [8]
emFf03AllNodesMulticastAddress
                        0x080194d4    0x10  Data  Gb  ip-address.o [8]
emFf03AllRoutersMulticastAddress
                        0x0802eebc    0x10  Data  Gb  ip-address.o [8]
emFillIslandId          0x0801d59d    0x4c  Code  Gb  network-fragmentation.o [8]
emFindAll6lowpanContexts
                        0x0801056f    0x2e  Code  Gb  context-table.o [8]
emFindChild             0x080157e1    0x18  Code  Gb  child-data.o [8]
emFindChildByInterfaceId
                        0x0801595f    0x7a  Code  Gb  child-data.o [8]
emFindChildIndex        0x0801541f    0x60  Code  Gb  child-data.o [8]
emFindChildIndexByAddress
                        0x08015681    0x18  Code  Gb  child-data.o [8]
emFindConnection        0x080102bd    0x5e  Code  Gb  udp.o [8]
emFindEvents            0x080109a1    0x56  Code  Gb  event-queue.o [8]
emFindNearestDhcpServer
                        0x08018801     0x4  Code  Gb  network-data.o [8]
emFindNearestGateway    0x080188a7    0x82  Code  Gb  network-data.o [8]
emFindNearestSlaacValidServer
                        0x080187fd     0x4  Code  Gb  network-data.o [8]
emFindNeighborByIpAddress
                        0x0801ae59    0x34  Code  Gb  rip-neighbor.o [8]
emFindNeighborIndex     0x0801ae8d    0x40  Code  Gb  rip-neighbor.o [8]
emFindNeighborIndexByIpAddress
                        0x0801adad    0x50  Code  Gb  rip-neighbor.o [8]
emFindNeighborIndexByShortId
                        0x0801ad5b     0xe  Code  Gb  rip-neighbor.o [8]
emFindNetworkDataSubTlv
                        0x08018325    0x2a  Code  Gb  network-data.o [8]
emFindNextNetworkDataTlv
                        0x0801835f    0x48  Code  Gb  network-data.o [8]
emFindPrefixSubTlv      0x0801834f    0x10  Code  Gb  network-data.o [8]
emFinishAdcTempReading  0x08005b5f    0x58  Code  Gb  phy.o [8]
emFinishCalibrateCurrentChannel
                        0x0800469d   0x222  Code  Gb  analogue.o [8]
emFinishCoapMessage     0x0801e94b   0x1d6  Code  Gb  coap-soc.o [8]
emFinishDtlsServerJoin  0x0801dc5d    0x46  Code  Gb  dtls-join.o [8]
emFinishRadioSetChannel
                        0x080048cb    0x5e  Code  Gb  analogue.o [8]
emFirstByteOfArg        0x080214d5    0x14  Code  Gb  command-interpreter2-util.o [1]
emFollowingBuffer       0x0800a435    0x10  Code  Gb  buffer-management.o [8]
emForceBadMleHopCount   0x2000ffe1     0x1  Data  Gb  mle.o [8]
emForceBadMleMic        0x2000ffe0     0x1  Data  Gb  mle.o [8]
emForceChildTimeoutMs   0x2000e3a8     0x4  Data  Gb  child-aging.o [8]
emForceDark             0x2000ffe3     0x1  Data  Gb  router-selection.o [8]
emForceEuiInterface     0x2000ffc4     0x1  Data  Gb  join.o [8]
emForceIslandId         0x2000f8c4     0x1  Data  Gb  network-fragmentation.o [8]
emForceJoinBetterIslandDelayMs
                        0x2000ff14     0x2  Data  Gb  network-fragmentation.o [8]
emForceLongSourcePoll   0x2000ffdc     0x1  Data  Gb  command.o [8]
emForceParentId         0x2000e25e     0x2  Data  Gb  join.o [8]
emForceParentLongId     0x2000f4a0     0x8  Data  Gb  join.o [8]
emForceRejectCoapSolicit
                        0x2000ffe8     0x1  Data  Gb  address-management.o [8]
emForceRejectDhcp       0x2000ffc5     0x1  Data  Gb  dhcp.o [8]
emForcedIslandId        0x2000f8c8     0x8  Data  Gb  network-fragmentation.o [8]
emForm                  0x0800c797    0xc8  Code  Gb  join.o [8]
emFormScanBuffer        0x2000f476     0x2  Data  Gb  join.o [8]
emFormSecurityInit      0x080151a7    0x14  Code  Gb  distributed-key-management.o [8]
emForwardToCommissioner
                        0x08017899    0x56  Code  Gb  commission.o [8]
emForwardToJoiner       0x08017901    0x1c  Code  Gb  commission.o [8]
emFragmentInit          0x0801d431    0x24  Code  Gb  network-fragmentation.o [8]
emFragmentRepairScanHandler
                        0x0801d5e9    0xae  Code  Gb  network-fragmentation.o [8]
emFragmentState         0x2000f8f4     0x1  Data  Gb  network-fragmentation.o [8]
emFragmentTimeoutMs     0x2000e3ec     0x2  Data  Gb  fragment.o [8]
emFragmentedMessages    0x2000ff9c     0x2  Data  Gb  fragment.o [8]
emGenericQueueAdd       0x0800e043    0x32  Code  Gb  buffer-queue.o [8]
emGenericQueueHead      0x0800e035     0xe  Code  Gb  buffer-queue.o [8]
emGenericQueueRemove    0x0800e0e1    0x64  Code  Gb  buffer-queue.o [8]
emGenericQueueRemoveHead
                        0x0800e0a3    0x3e  Code  Gb  buffer-queue.o [8]
emGetActiveNetworkKeySequenceNumber
                        0x08015121    0x1e  Code  Gb  distributed-key-management.o [8]
emGetAddressData        0x080162b9     0x8  Code  Gb  address-cache.o [8]
emGetBufferLength       0x0800a023    0x2c  Code  Gb  buffer-management.o [8]
emGetBufferLink         0x0800a131    0x20  Code  Gb  buffer-management.o [8]
emGetBufferPointer      0x08009ff7    0x2c  Code  Gb  buffer-management.o [8]
emGetCoapCodeName       0x08010b27    0x1a  Code  Gb  coap.o [8]
emGetCoapTypeName       0x08010b41    0x18  Code  Gb  coap.o [8]
emGetCommissioningMacKey
                        0x0800d387    0x1e  Code  Gb  join.o [8]
emGetLeaderNodeId       0x080183a7    0x16  Code  Gb  network-data.o [8]
emGetLegacyMleKey       0x08015197     0xc  Code  Gb  distributed-key-management.o [8]
emGetLegacyNetworkKey   0x08015187     0xc  Code  Gb  distributed-key-management.o [8]
emGetLongIdFromAuxFrame
                        0x0800f233    0x1c  Code  Gb  802-15-4-ccm.o [8]
emGetMacTimer           0x08005af5     0x6  Code  Gb  phy.o [8]
emGetMasterKey          0x080151a3     0x4  Code  Gb  distributed-key-management.o [8]
emGetMeshSource         0x0800c2c9    0x1a  Code  Gb  ip-packet-header.o [8]
emGetMleKey             0x08015193     0x4  Code  Gb  distributed-key-management.o [8]
emGetNetworkKey         0x08015183     0x4  Code  Gb  distributed-key-management.o [8]
emGetOutgoingCommissioningMacKey
                        0x0801ec31    0x26  Code  Gb  coap-soc.o [8]
emGetParentIpv6Address  0x0800d1e9    0x32  Code  Gb  join.o [8]
emGetPhyRadioChannel    0x08004939     0x6  Code  Gb  analogue.o [8]
emGetPhyRadioPower      0x0800493f     0x8  Code  Gb  analogue.o [8]
emGetPollTimeout        0x0801912f    0x1e  Code  Gb  child-aging.o [8]
emGetPrefixAddressEntry
                        0x08015f33     0x6  Code  Gb  global-prefix.o [8]
emGetRoute              0x080126b3    0x66  Code  Gb  rip.o [8]
emGetSecurityFrameCounter
                        0x0800eec3     0x6  Code  Gb  802-15-4-ccm.o [8]
emGetSequenceFromAuxFrame
                        0x0800f021    0x36  Code  Gb  802-15-4-ccm.o [8]
emGetShortAddress       0x080164fb    0x62  Code  Gb  address-cache.o [8]
emGetTempFromAdc        0x08005bb7    0x10  Code  Gb  phy.o [8]
emGetTftpBootloaderRemoteAddress
                        0x0802ba8d    0x18  Code  Gb  tftp-bootloader.o [1]
emGetThreadJoin         0x0800d0b1     0x8  Code  Gb  join.o [8]
emGetThreadNativeCommission
                        0x0800d0b9     0x8  Code  Gb  join.o [8]
emGleanShortIdFromInterfaceId
                        0x08019279    0x1a  Code  Gb  ip-address.o [8]
emGlobalAddressTable    0x2000f902     0x2  Data  Gb  global-prefix.o [8]
emGlobalPrefixTableInit
                        0x08015ce3     0xc  Code  Gb  global-prefix.o [8]
emHandleAddressManagementPost
                        0x0802692f    0x6a  Code  Gb  address-management.o [8]
emHandleIncomingCoapCommission
                        0x0801eb69    0xa2  Code  Gb  coap-soc.o [8]
emHandleIncomingTcp     0x08028901     0x2  Code  Gb  tcp-stub.o [8]
emHandleIncomingUdp     0x080103e1   0x108  Code  Gb  udp.o [8]
emHandleJoinDtlsMessage
                        0x08017743    0x6e  Code  Gb  commission.o [8]
emHandleTftpBootloaderBootloadRequest
                        0x0802909d    0xac  Code  Gb  tftp-bootloader-server.o [1]
emHandshakeFinishedHash
                        0x0802c0cd    0x46  Code  Gb  tls-handshake-crypto.o [8]
emHashTlsHandshake      0x0801f70f    0x48  Code  Gb  tls-record-util.o [8]
emHastenRipAdvertisement
                        0x0801223d    0x2c  Code  Gb  rip.o [8]
emHaveLeader            0x2000f88e     0x1  Data  Gb  network-data.o [8]
emHaveLegacyUla         0x08015cdf     0x4  Code  Gb  global-prefix.o [8]
emHeaderIsBroadcast     0x0800c251    0x26  Code  Gb  ip-packet-header.o [8]
emHeaderMacInfoField    0x0800c0e9     0x6  Code  Gb  ip-packet-header.o [8]
emHeaderSetMacInfoField
                        0x0800c0ef     0x8  Code  Gb  ip-packet-header.o [8]
emHeaderSetStackPrivate
                        0x0800c0f7    0x10  Code  Gb  ip-packet-header.o [8]
emHeaderSetTag          0x0800c10d     0x4  Code  Gb  ip-packet-header.o [8]
emHeaderTag             0x0800c107     0x6  Code  Gb  ip-packet-header.o [8]
emHeapBase              0x2000f72c     0x4  Data  Lc  buffer-management.o [8]
emHeapLimit             0x2000f730     0x4  Data  Lc  buffer-management.o [8]
emIgnoreTxFail          0x2000ffd2     0x1  Data  Gb  dispatch.o [8]
emIncomingForMeToUart   0x2000f708     0x1  Data  Gb  dispatch.o [8]
emIncomingJoinMessageHandler
                        0x0801dce3   0x2e0  Code  Gb  dtls-join.o [8]
emIncomingLinkQuality   0x0801b10b    0x12  Code  Gb  rip-neighbor.o [8]
emInitEui64             0x08008d55    0x1c  Code  Gb  eui64.o [8]
emInitializeBuffers     0x08009a05    0x30  Code  Gb  buffer-management.o [8]
emInitializeChild       0x0801551b    0xce  Code  Gb  child-data.o [8]
emInitializeEventQueue  0x0801070f     0xa  Code  Gb  event-queue.o [8]
emInitializeLeaderNetworkData
                        0x080183e9    0x36  Code  Gb  network-data.o [8]
emInitializeLeaderRipId
                        0x08012055    0x30  Code  Gb  rip.o [8]
emInitializeLeaderServerData
                        0x080276d5    0x22  Code  Gb  local-server-data.o [8]
emInitializeStackCoapMessage
                        0x0802663b    0x2e  Code  Gb  transport-header.o [8]
emInitializeTftpServer  0x08028c3d     0xc  Code  Gb  tftp-server.o [1]
emInsertRipEntry        0x0801ab87    0x7e  Code  Gb  rip-neighbor.o [8]
emIpConnections         0x2000ffa4     0x2  Data  Gb  udp.o [8]
emIsActiveKeySequence   0x08015089    0x20  Code  Gb  distributed-key-management.o [8]
emIsAllNodesMulticastAddress
                        0x0801948b    0x28  Code  Gb  ip-address.o [8]
emIsAssignedId          0x08012003    0x38  Code  Gb  rip.o [8]
emIsAssignedInMask      0x0801203b    0x1a  Code  Gb  rip.o [8]
emIsDefaultGlobalPrefix
                        0x08015cc9    0x14  Code  Gb  global-prefix.o [8]
emIsDuplicateMulticast  0x08015ab3   0x14a  Code  Gb  multicast.o [8]
emIsFe8Address          0x080193a5     0xa  Code  Gb  ip-address.o [8]
emIsFf01MulticastAddress
                        0x08019455     0xe  Code  Gb  ip-address.o [8]
emIsFf02MulticastAddress
                        0x08019463    0x14  Code  Gb  ip-address.o [8]
emIsFf03MulticastAddress
                        0x08019477    0x14  Code  Gb  ip-address.o [8]
emIsFragment            0x0800fac5    0x28  Code  Gb  fragment.o [8]
emIsFrameCounterValid   0x080150cf    0x52  Code  Gb  distributed-key-management.o [8]
emIsGp16                0x08019341    0x10  Code  Gb  ip-address.o [8]
emIsGp64                0x08019367     0xa  Code  Gb  ip-address.o [8]
emIsInUnicastTable      0x08015295    0x28  Code  Gb  unicast-table.o [8]
emIsLl16                0x080193af    0x10  Code  Gb  ip-address.o [8]
emIsLl64                0x080193cb     0x8  Code  Gb  ip-address.o [8]
emIsLocalIpAddress      0x0801614b    0x5a  Code  Gb  global-prefix.o [8]
emIsLocalLongInterfaceId
                        0x08019293    0x2e  Code  Gb  ip-address.o [8]
emIsLocalShortInterfaceId
                        0x080192ed    0x2e  Code  Gb  ip-address.o [8]
emIsLoopbackAddress     0x0801931b    0x18  Code  Gb  ip-address.o [8]
emIsMulticastForMe      0x0802829d    0x76  Code  Gb  ip-header.o [8]
emIsOurDhcpServerPrefix
                        0x08015f39    0x1a  Code  Gb  global-prefix.o [8]
emIsOurExternalRoutePrefix
                        0x080272a7    0x1e  Code  Gb  local-server-data.o [8]
emIsPriorKeySequence    0x080150a9    0x26  Code  Gb  distributed-key-management.o [8]
emIsSleepyChild         0x0801581b    0x20  Code  Gb  child-data.o [8]
emIsUnicastForMe        0x0801940d    0x16  Code  Gb  ip-address.o [8]
emIslandId              0x2000f8d4     0x8  Data  Gb  network-fragmentation.o [8]
emIslandInit            0x0801d45f    0x14  Code  Gb  network-fragmentation.o [8]
emIslandSequenceNumber  0x2000f8d0     0x1  Data  Gb  network-fragmentation.o [8]
emIslandSequenceNumberUpdated
                        0x0801d48b     0xa  Code  Gb  network-fragmentation.o [8]
emIsrEventMarker        0x08010705     0xa  Code  Gb  event-queue.o [8]
emJPakeEccFinish        0x080115f9    0xfa  Code  Gb  jpake-ecc-mbedtls.o [8]
emJPakeEccFree          0x080119d9    0x56  Code  Gb  jpake-ecc-mbedtls.o [8]
emJPakeEccStart         0x08011555    0xa4  Code  Gb  jpake-ecc-mbedtls.o [8]
emJitTransmitComplete   0x0801f25b    0xa2  Code  Gb  jit.o [8]
emJoinBetterIsland      0x0801d531    0x6c  Code  Gb  network-fragmentation.o [8]
emJoinCommissionCompleteHandler
                        0x0800d44f    0x1c  Code  Gb  join.o [8]
emJoinInit              0x0800d159    0x8c  Code  Gb  join.o [8]
emJoinSecurityFailed    0x0800d08b    0x10  Code  Gb  join.o [8]
emJoinSecurityInit      0x080151bb     0x2  Code  Gb  distributed-key-management.o [8]
emJoinState             0x2000f46b     0x1  Data  Gb  join.o [8]
emJpakeEccGetCkxaOrSkxbData
                        0x08011863    0xe0  Code  Gb  jpake-ecc-mbedtls.o [8]
emJpakeEccGetHxaHxbData
                        0x080116f3    0xac  Code  Gb  jpake-ecc-mbedtls.o [8]
emJpakeEccVerifyCkxaOrSkxbData
                        0x08011943    0x8e  Code  Gb  jpake-ecc-mbedtls.o [8]
emJpakeEccVerifyHxaHxbData
                        0x0801179f    0xba  Code  Gb  jpake-ecc-mbedtls.o [8]
emKeepaliveFlurryIntervalS
                        0x2000e38c     0x4  Data  Gb  child-aging.o [8]
emLeaderDataMatches     0x080183bd    0x2c  Code  Gb  network-data.o [8]
emLeaderIndex           0x0801b7ad    0x10  Code  Gb  rip-neighbor.o [8]
emLinkIsEstablished     0x0801b057    0x10  Code  Gb  rip-neighbor.o [8]
emLinkLocalIdentifier   0x2000fe9c     0x8  Data  Gb  ip-address.o [8]
emListAdd               0x08021a55     0xe  Code  Gb  list.o [8]
emListGet               0x080219dd    0x5e  Code  Gb  list.o [8]
emListGetSize           0x08021a3b    0x14  Code  Gb  list.o [8]
emListMark              0x08021b91    0x2c  Code  Gb  list.o [8]
emListReallyAdd         0x08021a63   0x12e  Code  Gb  list.o [8]
emLoadKeyIntoCore       0x080086f1    0x1c  Code  Gb  aes.o [8]
emLocalEui64            0x2000f87c     0x8  Data  Gb  eui64.o [8]
emLocalIslandId         0x0801d473    0x18  Code  Gb  network-fragmentation.o [8]
emLocalRadioNodeId      0x2000e2ea     0x2  Data  Lc  phy-common.o [8]
emLocalRadioPanId       0x2000e2ec     0x2  Data  Lc  phy-common.o [8]
emLocalRipId            0x08011fef    0x14  Code  Gb  rip.o [8]
emLogIsActive           0x0800b49f    0x1e  Code  Gb  log.o [8]
emLogTypeNames          0x0800b658    0x70  Data  Lc  log.o [8]
emLookupChildEui64ById  0x0801583b    0x18  Code  Gb  child-data.o [8]
emLookupHandle          0x0801027b    0x42  Code  Gb  udp.o [8]
emLookupLongId          0x0800b029    0x16  Code  Gb  ip-stack.o [8]
emLookupNextHop         0x0801a5db    0x6c  Code  Gb  dispatch.o [8]
emLostParent            0x08018f7d    0x30  Code  Gb  child-aging.o [8]
emMacAckNeeded          0x2000f86c     0x1  Data  Gb  phy-common.o [8]
emMacBeaconSequenceNumber
                        0x2000f909     0x1  Data  Gb  mac-arbiter.o [8]
emMacBuffer             0x2000f90c     0x2  Data  Gb  mac-arbiter.o [8]
emMacCheckIncomingQueue
                        0x080083d7   0x12c  Code  Gb  ip-mac-receive.o [8]
emMacCheckRadio         0x08008669    0x2a  Code  Gb  mac-em250.o [8]
emMacCommandHandler     0x0802816d   0x10e  Code  Gb  association.o [8]
emMacCurrentCommand     0x2000ffdf     0x1  Data  Gb  mac-arbiter.o [8]
emMacCurrentFrameType   0x2000ffde     0x1  Data  Gb  mac-arbiter.o [8]
emMacDataSequenceNumber
                        0x2000f908     0x1  Data  Gb  mac-arbiter.o [8]
emMacDecrypt            0x0800f24f    0x70  Code  Gb  802-15-4-ccm.o [8]
emMacDequeue            0x0800dd47    0x5a  Code  Gb  mac-arbiter.o [8]
emMacDestinationMode    0x0800c117     0xe  Code  Gb  ip-packet-header.o [8]
emMacDestinationPointer
                        0x0800c125    0x1e  Code  Gb  ip-packet-header.o [8]
emMacDisassociationNotificationRespond
                        0x0801e5dd    0x44  Code  Gb  command.o [8]
emMacDropIncomingPackets
                        0x2000feac     0x1  Data  Gb  ip-mac-receive.o [8]
emMacEncrypt            0x0800f0ed    0xd0  Code  Gb  802-15-4-ccm.o [8]
emMacExtendedId         0x080194e5     0x4  Code  Gb  mac-header-util.o [8]
emMacHeaderLength       0x080194ed    0x36  Code  Gb  mac-header-util.o [8]
emMacIndirectCheckPollFlags
                        0x0800f5e9   0x10c  Code  Gb  mac-indirect.o [8]
emMacIndirectInit       0x0800f2ff    0x14  Code  Gb  mac-indirect.o [8]
emMacIndirectProcessPoll
                        0x0800f3c7    0x74  Code  Gb  mac-indirect.o [8]
emMacIndirectPurge      0x0800f5e1     0x8  Code  Gb  mac-indirect.o [8]
emMacIndirectTransmitComplete
                        0x0800f4e1    0xca  Code  Gb  mac-indirect.o [8]
emMacInit               0x0800de21    0x46  Code  Gb  mac-arbiter.o [8]
emMacIsEmpty            0x0800ddd9    0x48  Code  Gb  mac-arbiter.o [8]
emMacKickStart          0x0800e509    0x2e  Code  Gb  mac.o [8]
emMacMakeBeacon         0x0801e621    0x80  Code  Gb  command.o [8]
emMacMakePollCommand    0x0801e563    0x7a  Code  Gb  command.o [8]
emMacMaxAckRetries      0x2000e3d0     0x1  Data  Gb  mac-em250.o [8]
emMacPayloadIndex       0x0800c0b1    0x24  Code  Gb  ip-packet-header.o [8]
emMacPayloadPointer     0x0800c0d5    0x14  Code  Gb  ip-packet-header.o [8]
emMacPermitAssn         0x2000ffdb     0x1  Data  Gb  command.o [8]
emMacPrepareTransmitBuffer
                        0x0800bd05   0x2a6  Code  Gb  ip-mac-header.o [8]
emMacReallySuspendTransmission
                        0x0800dda1    0x38  Code  Gb  mac-arbiter.o [8]
emMacReceiveMode        0x2000ffd0     0x1  Data  Gb  dispatch.o [8]
emMacRequestPoll        0x0800dd1d    0x2a  Code  Gb  mac-arbiter.o [8]
emMacRetries            0x2000ffe5     0x1  Data  Gb  mac-em250.o [8]
emMacScanDwell          0x0800e63d    0x3e  Code  Gb  mac.o [8]
emMacScanEnd            0x0800e609    0x34  Code  Gb  mac.o [8]
emMacScanType           0x2000e2c0     0x1  Data  Gb  scan.o [8]
emMacSendBeaconRequest  0x0801e537    0x16  Code  Gb  command.o [8]
emMacSendCommand        0x0801e4d5    0x4a  Code  Gb  command.o [8]
emMacSendOrphanNotification
                        0x0801e51f    0x18  Code  Gb  command.o [8]
emMacShortDestination   0x0800c143     0x8  Code  Gb  ip-packet-header.o [8]
emMacShortSource        0x0800c2bb     0x6  Code  Gb  ip-packet-header.o [8]
emMacShutdownCallback   0x2000f914     0x4  Data  Gb  mac-arbiter.o [8]
emMacSourceMode         0x0800c277     0xe  Code  Gb  ip-packet-header.o [8]
emMacSourcePointer      0x0800c285    0x36  Code  Gb  ip-packet-header.o [8]
emMacState              0x2000ffe6     0x1  Data  Gb  mac.o [8]
emMacSubmit             0x0800dcdb    0x42  Code  Gb  mac-arbiter.o [8]
emMacSubmitIndirect     0x0800f313    0x68  Code  Gb  mac-indirect.o [8]
emMacToNetworkQueue     0x2000f912     0x2  Data  Gb  mac-arbiter.o [8]
emMacTransmitCompleteCallback
                        0x0801a4d1    0xda  Code  Gb  dispatch.o [8]
emMacTransmitCompleteHandler
                        0x0800decb    0x1c  Code  Gb  mac-arbiter.o [8]
emMacTransmitCompleteIsr
                        0x0800de67    0x58  Code  Gb  mac-arbiter.o [8]
emMacTransmitCounter    0x2000f71c     0x4  Data  Gb  dispatch.o [8]
emMacTransmitEvent      0x2000e3e0     0xc  Data  Gb  mac.o [8]
emMakeAssignedRipIdMask
                        0x08012085    0x64  Code  Gb  rip.o [8]
emMakeDataHeader        0x0800c2e3    0x9c  Code  Gb  ip-packet-header.o [8]
emMakeHelloVerifyRequestMessage
                        0x08029cb7    0x3c  Code  Gb  tls-handshake.o [8]
emMakeIpHeader          0x0802834d   0x33e  Code  Gb  ip-header.o [8]
emMakeLocalServerData   0x080274b3    0xc4  Code  Gb  local-server-data.o [8]
emMakeNextFragment      0x0800fedb   0x24e  Code  Gb  fragment.o [8]
emMakeRawPacketHeader   0x0800c37f    0x4a  Code  Gb  ip-packet-header.o [8]
emMakeStackJitMessage   0x0801f185    0x5a  Code  Gb  jit.o [8]
emMakeTaggedIcmpHeader  0x080265bb    0x74  Code  Gb  transport-header.o [8]
emMakeTaggedUdpHeader   0x080264e5    0x58  Code  Gb  transport-header.o [8]
emMallocCount           0x2000fef4     0x4  Data  Gb  buffer-malloc.o [8]
emMallocFreeList        0x2000f724     0x2  Data  Gb  buffer-management.o [8]
emMallocSize            0x2000fef8     0x4  Data  Gb  buffer-malloc.o [8]
emMarkAmalgamateQueue   0x08009c55    0x58  Code  Gb  buffer-management.o [8]
emMarkAssignedRipIds    0x080120e9   0x102  Code  Gb  rip.o [8]
emMarkBuffer            0x08009b69    0x76  Code  Gb  buffer-management.o [8]
emMarkBufferPointer     0x0800a4f9    0x52  Code  Gb  buffer-management.o [8]
emMarkContextTableBuffers
                        0x08010539     0x2  Code  Gb  context-table.o [8]
emMarkFragmentBuffers   0x0800fabd     0x8  Code  Gb  fragment.o [8]
emMarkJPakeData         0x08011a2f    0x80  Code  Gb  jpake-ecc-mbedtls.o [8]
emMarkMacArbiterBuffers
                        0x0800dcad    0x2e  Code  Gb  mac-arbiter.o [8]
emMarkMacIndirectBuffers
                        0x0800f2e9     0x8  Code  Gb  mac-indirect.o [8]
emMarkRetryBuffers      0x0800f89d    0x22  Code  Gb  retry.o [8]
emMarkTaskActive        0x0800e47d     0xe  Code  Gb  event-control.o [8]
emMarkTftpBootloaderBuffers
                        0x08028ecd     0x6  Code  Gb  tftp-bootloader-server.o [1]
emMarkTlsState          0x0801f7e5    0x42  Code  Gb  tls-record-util.o [8]
emMarkUdpBuffers        0x080101cd    0xae  Code  Gb  udp.o [8]
emMarkWakeupBuffers     0x0800a881     0x2  Code  Gb  wakeup-stubs.o [8]
emMatchingPrefixBitLength
                        0x080099a7    0x48  Code  Gb  byte-utilities.o [8]
emMaxEndDeviceChildren  0x2000e184     0x1  Data  Gb  ember-ip-configuration.o [1]
emMaybeAddChild         0x080154cf    0x4c  Code  Gb  child-data.o [8]
emMaybeClearRoute       0x0801ad03    0x2e  Code  Gb  rip-neighbor.o [8]
emMaybeHastenRipAdvertisement
                        0x0801227d    0x32  Code  Gb  rip.o [8]
emMemoryByteCompare     0x08009933    0x1e  Code  Gb  byte-utilities.o [8]
emMergeBuffers          0x0800a44d    0x3c  Code  Gb  buffer-management.o [8]
emMergeNetworkData      0x0801898b   0x174  Code  Gb  network-data.o [8]
emMeshLocalIdentifier   0x2000fe94     0x8  Data  Gb  ip-address.o [8]
emMfglibMode            0x2000f86d     0x1  Data  Gb  phy-common.o [8]
emMfglibRxCallback      0x2000feb4     0x4  Data  Gb  ip-mac-receive.o [8]
emMfglibTransmitComplete
                        0x2000f86e     0x1  Data  Gb  phy-common.o [8]
emMinDowngradeNeighbors
                        0x2000e3ae     0x1  Data  Gb  router-selection.o [8]
emMleAttachCompleteHandler
                        0x0800d71d    0x18  Code  Gb  join.o [8]
emMleIncomingMessageHandler
                        0x08012bdd    0x1c  Code  Gb  mle.o [8]
emMleInit               0x080128f1     0x6  Code  Gb  mle.o [8]
emMleLurkerAcceptHandler
                        0x0800d059    0x10  Code  Gb  join.o [8]
emMleModeIsLurker       0x08014ccd    0x16  Code  Gb  mle.o [8]
emMleTlvPresent         0x0801290b    0x14  Code  Gb  mle.o [8]
emModifyLongId          0x080192c1    0x10  Code  Gb  ip-address.o [8]
emMoreFragments         0x0801013b    0x3c  Code  Gb  fragment.o [8]
emMulticastContext      0x080106b9     0x4  Code  Gb  context-table.o [8]
emMulticastRetryCount   0x2000e2d2     0x1  Data  Gb  dispatch.o [8]
emMulticastTable        0x2000ffa8     0x2  Data  Gb  multicast.o [8]
emMulticastTableInit    0x08015bfd     0xa  Code  Gb  multicast.o [8]
emMySharedKey           0x2000e45c     0x4  Data  Gb  tls-test-credentials.o [8]
emNeedAddressRequest    0x08015d65    0x20  Code  Gb  global-prefix.o [8]
emNeedsFurtherTransmissions
                        0x0801a37f    0x5e  Code  Gb  dispatch.o [8]
emNeighborIsFrameCounterValid
                        0x0801b313    0x64  Code  Gb  rip-neighbor.o [8]
emNeighborLookupLongId  0x0801ae1f    0x3a  Code  Gb  rip-neighbor.o [8]
emNeighborResetFrameCounters
                        0x0801b37f    0x3c  Code  Gb  rip-neighbor.o [8]
emNeighborSetFrameCounter
                        0x0801b2d9    0x32  Code  Gb  rip-neighbor.o [8]
emNeighborShortId       0x0801adfd    0x22  Code  Gb  rip-neighbor.o [8]
emNeighborUsingOldKey   0x0801b495    0x24  Code  Gb  rip-neighbor.o [8]
emNeighborWriteMleRecords
                        0x0801b3bb    0xda  Code  Gb  rip-neighbor.o [8]
emNetworkCheckIncomingQueue
                        0x08019691    0x7c  Code  Gb  dispatch.o [8]
emNetworkData           0x2000f890     0x2  Data  Gb  network-data.o [8]
emNetworkDataInit       0x080180a5     0xc  Code  Gb  network-data.o [8]
emNetworkDataTlvHasNode
                        0x08018751    0x26  Code  Gb  network-data.o [8]
emNetworkFragmentationEnabled
                        0x2000e310     0x1  Data  Gb  network-fragmentation.o [8]
emNetworkKeyUpdate      0x08014f69    0x86  Code  Gb  distributed-key-management.o [8]
emNewStyleAddressRegistration
                        0x2000e348     0x1  Data  Gb  mle.o [8]
emNextHeaderCompression
                        0x2000e42c     0x1  Data  Gb  6lowpan-header.o [8]
emNextNwkFrameCounter   0x2000fecc     0x4  Data  Gb  802-15-4-ccm.o [8]
emNodeType              0x2000ff04     0x1  Data  Gb  ip-stack.o [8]
emNodeTypeString        0x0800ab09    0x10  Code  Gb  ip-stack.o [8]
emNoteChildTransaction  0x080155e9    0x1a  Code  Gb  child-data.o [8]
emNoteCoapAck           0x08010a37    0x1a  Code  Gb  coap.o [8]
emNoteExternalCommissioner
                        0x08016771     0xe  Code  Gb  commission.o [8]
emNoteGlobalPrefix      0x08020215    0xba  Code  Gb  dhcp.o [8]
emNoteIdMapping         0x0801638b    0x40  Code  Gb  address-cache.o [8]
emNoteLinkQuality       0x0801b1ff    0x46  Code  Gb  rip-neighbor.o [8]
emNoteMleJoiner         0x0801b717    0x88  Code  Gb  rip-neighbor.o [8]
emNoteMleSender         0x0801b5ed   0x110  Code  Gb  rip-neighbor.o [8]
emNoteNetworkDataChange
                        0x08018245    0xb4  Code  Gb  network-data.o [8]
emNoteNetworkDataVersion
                        0x080181f1    0x54  Code  Gb  network-data.o [8]
emNoteSuccessfulPoll    0x080190ef    0x40  Code  Gb  child-aging.o [8]
emOpenDtlsConnection    0x0801fe5f    0x34  Code  Gb  dtls.o [8]
emOpenDtlsServer        0x0801fe93    0x1a  Code  Gb  dtls.o [8]
emOutgoingLinkQuality   0x0801b0fb    0x10  Code  Gb  rip-neighbor.o [8]
emPacketReceivedInternalIsrCallback
                        0x08008321    0x42  Code  Gb  ip-mac-receive.o [8]
emParentConnectionHandle
                        0x2000f601     0x1  Data  Gb  dtls-join.o [8]
emParentCostToLeader    0x2000e25b     0x1  Data  Gb  join.o [8]
emParentId              0x2000e25c     0x2  Data  Gb  join.o [8]
emParentLongId          0x2000f498     0x8  Data  Gb  join.o [8]
emParseCoapMessage      0x0801101d    0x7a  Code  Gb  coap.o [8]
emParseInitialDtlsPacket
                        0x08029d11   0x1c8  Code  Gb  tls-handshake.o [8]
emParseTlvMessage       0x0801683d    0xe8  Code  Gb  commission.o [8]
emPartialHandshakeHash  0x0802c0a5    0x28  Code  Gb  tls-handshake-crypto.o [8]
emPayloadQueueToLinkedPayload
                        0x0800e1f1    0x1e  Code  Gb  buffer-queue.o [8]
emPendingPollResponse   0x0800f2f1     0xe  Code  Gb  mac-indirect.o [8]
emPendingReplies        0x2000f4be     0x2  Data  Gb  ip-stack.o [8]
emPhySetCoordinator     0x0800636f    0x1e  Code  Gb  phy-common.o [8]
emPhySetEui64           0x08006341    0x2e  Code  Gb  phy-common.o [8]
emPhyToMacQueueAdd      0x0800a2fb    0x1e  Code  Gb  buffer-management.o [8]
emPhyToMacQueueIsEmpty  0x0800a335     0x6  Code  Gb  buffer-management.o [8]
emPhyToMacQueueItemAddedCallback
                        0x0800ad75     0xa  Code  Gb  ip-stack.o [8]
emPhyToMacQueueRemoveHead
                        0x0800a319    0x1c  Code  Gb  buffer-management.o [8]
emPointsIntoHeap        0x08009a57    0x16  Code  Gb  buffer-management.o [8]
emPrepareRetriedMleMessage
                        0x080142df    0x4a  Code  Gb  mle.o [8]
emPrepareRetryEntryForSubmission
                        0x0801a2fd    0x82  Code  Gb  dispatch.o [8]
emPreviousNodeId        0x2000e312     0x2  Data  Gb  network-fragmentation.o [8]
emPrintfInternal        0x08009713   0x150  Code  Gb  serial-printf.o [1]
emProcessCoapMessage    0x080110f9   0x118  Code  Gb  coap.o [8]
emProcessCommissioningMessage
                        0x0800d3a5    0x3a  Code  Gb  join.o [8]
emProcessFragment       0x0800faed   0x1ec  Code  Gb  fragment.o [8]
emProcessIdResponse     0x0801ef8d    0xc6  Code  Gb  router-selection.o [8]
emProcessIncomingBeacon
                        0x0800ca6f   0x154  Code  Gb  join.o [8]
emProcessJpakeServerKeyExchange
                        0x0802bdaf    0x6a  Code  Gb  tls-jpake.o [8]
emProcessMacCommand     0x0800dee7    0xca  Code  Gb  mac-arbiter.o [8]
emProcessMleParentResponse
                        0x0800d739   0x246  Code  Gb  join.o [8]
emProcessNetworkDataChangeRequest
                        0x08018563    0xca  Code  Gb  network-data.o [8]
emProcessRipNeighborTlv
                        0x080124e7   0x1cc  Code  Gb  rip.o [8]
emProcessTftpBootloaderPacket
                        0x08029159    0x44  Code  Gb  tftp-bootloader-server.o [1]
emProcessTftpPacket     0x08028c9b   0x14e  Code  Gb  tftp-server.o [1]
emProcessTransmitState  0x08008693     0xa  Code  Gb  mac-em250.o [8]
emProcessWakeupMessage  0x0800a883     0x4  Code  Gb  wakeup-stubs.o [8]
emRadioAdjustLna        0x08006b21     0x4  Code  Gb  analogue-lna.o [8]
emRadioAdjustModDac     0x080068a5     0xe  Code  Gb  analogue-mod-dac.o [8]
emRadioAlwaysUseZeroBackoff
                        0x2000f86f     0x1  Data  Gb  phy-common.o [8]
emRadioAutoAckEnabled   0x0800633b     0x6  Code  Gb  phy-common.o [8]
emRadioBootPhySpecific  0x08005761    0x64  Code  Gb  phy.o [8]
emRadioCalculateLinkQuality
                        0x08005cd7    0x1a  Code  Gb  phy-common.o [8]
emRadioCalculateModDacTuneValue
                        0x080069d3   0x112  Code  Gb  analogue-mod-dac.o [8]
emRadioCalibrateCellBias
                        0x080054b1    0xa6  Code  Gb  analogue-cell-bias.o [8]
emRadioCalibrateFilter  0x08005c59    0x36  Code  Gb  analogue-filter.o [8]
emRadioCalibrateLna     0x08006b2b   0x160  Code  Gb  analogue-lna.o [8]
emRadioCalibrateVco     0x080067f7    0x8a  Code  Gb  analogue-vco.o [8]
emRadioChannel          0x2000e240     0x1  Data  Gb  analogue.o [8]
emRadioCheckRadio       0x08005bc7    0x34  Code  Gb  phy.o [8]
emRadioEnableAddressMatching
                        0x080062e3    0x28  Code  Gb  phy-common.o [8]
emRadioEnableAutoAck    0x0800630b    0x30  Code  Gb  phy-common.o [8]
emRadioEnablePacketTrace
                        0x080063bb    0x18  Code  Gb  phy-common.o [8]
emRadioEnergyDetection  0x080062c9    0x1a  Code  Gb  phy-common.o [8]
emRadioGetIdleMode      0x0800629f     0x6  Code  Gb  phy-common.o [8]
emRadioGetNodeId        0x08006395     0x6  Code  Gb  phy-common.o [8]
emRadioGetPanId         0x080063a5     0x6  Code  Gb  phy-common.o [8]
emRadioGetPowerStatus   0x0800628b     0x6  Code  Gb  phy-common.o [8]
emRadioGetRandomNumbers
                        0x08005afb    0x5c  Code  Gb  phy.o [8]
emRadioHoldOffIsActive  0x08005bfb     0x6  Code  Gb  phy.o [8]
emRadioIdleMicroForUs   0x08005e83    0x2c  Code  Gb  phy-common.o [8]
emRadioInit             0x080060af   0x124  Code  Gb  phy-common.o [8]
emRadioLastOutgoingCommand
                        0x2000e2e7     0x1  Data  Gb  phy-common.o [8]
emRadioMacTimerDelayExpired
                        0x2000ffda     0x1  Data  Lc  phy-common.o [8]
emRadioManagePollTxRxTurnaround
                        0x2000ffd9     0x1  Data  Gb  phy-common.o [8]
emRadioOkToIdle         0x08006291     0xe  Code  Gb  phy-common.o [8]
emRadioPower            0x2000e244     0x1  Data  Gb  analogue.o [8]
emRadioReadSerialReg    0x08004545     0xe  Code  Gb  analogue.o [8]
emRadioReceiveCrcEnabled
                        0x080063b5     0x6  Code  Gb  phy-common.o [8]
emRadioReceiveIsr       0x080059db   0x11a  Code  Gb  phy.o [8]
emRadioReceiveMacHeaderCallback
                        0x0800b98b   0x35a  Code  Gb  ip-mac-header.o [8]
emRadioResetAndEnableReceive
                        0x08005715    0x4c  Code  Gb  phy.o [8]
emRadioSeedRandom       0x08019535    0x12  Code  Gb  phy-util.o [8]
emRadioSetEdCcaThreshold
                        0x080063d3    0x4c  Code  Gb  phy-common.o [8]
emRadioSetIdleMode      0x080062a5    0x24  Code  Gb  phy-common.o [8]
emRadioSetNodeId        0x0800639b     0xa  Code  Gb  phy-common.o [8]
emRadioSetPanId         0x080063ab     0xa  Code  Gb  phy-common.o [8]
emRadioSleep            0x080061d3    0x5a  Code  Gb  phy-common.o [8]
emRadioTransmit         0x08005d2f   0x12e  Code  Gb  phy-common.o [8]
emRadioTransmitCompleteCallback
                        0x080085a3    0x8e  Code  Gb  mac-em250.o [8]
emRadioTransmitIsr      0x08005eaf   0x200  Code  Gb  phy-common.o [8]
emRadioTruncateIncomingAckToPoll
                        0x2000f750     0x1  Data  Gb  phy.o [8]
emRadioTxAckIsrCallback
                        0x08008631    0x38  Code  Gb  mac-em250.o [8]
emRadioTxPowerMode      0x2000e250     0x2  Data  Gb  analogue.o [8]
emRadioUnpackChipErrors
                        0x08005cc9     0xe  Code  Gb  phy-common.o [8]
emRadioWakeUp           0x0800622d    0x5e  Code  Gb  phy-common.o [8]
emRadioWriteSerialReg   0x08004553    0x34  Code  Gb  analogue.o [8]
emReadAndProcessRecord  0x08029419   0x188  Code  Gb  tls-handshake.o [8]
emReadJPakeData         0x08029a17    0x7e  Code  Gb  tls-handshake.o [8]
emReadMeshHeader        0x0801d05b    0x36  Code  Gb  6lowpan-header.o [8]
emReallyAllocateBuffer  0x0800a1f7    0xa8  Code  Gb  buffer-management.o [8]
emReallyCopyToLinkedBuffers
                        0x0800a359    0x4e  Code  Gb  buffer-management.o [8]
emReallyEndLogLine      0x0800b4e7     0x4  Code  Gb  log.o [8]
emReallyFetchIpv6Header
                        0x080262b5    0x6c  Code  Gb  transport-header.o [8]
emReallyFillBuffer      0x0800a2cb    0x28  Code  Gb  buffer-management.o [8]
emReallyLog             0x0800b4bd    0x1c  Code  Gb  log.o [8]
emReallyLogBytes        0x0800b525    0x86  Code  Gb  log.o [8]
emReallyLogCodePoint    0x0800b5ab    0x44  Code  Gb  log.o [8]
emReallyLogIpAddress    0x0800b5ef    0x36  Code  Gb  log.o [8]
emReallyLogLine         0x0800b4eb    0x24  Code  Gb  log.o [8]
emReallyResetTftp       0x0802b7d1    0x18  Code  Gb  tftp.o [1]
emReallyStartLogLine    0x0800b4d9     0xe  Code  Gb  log.o [8]
emReallyStopScan        0x0801d929    0x3c  Code  Lc  scan.o [8]
emReallyStoreIpv6Header
                        0x08026321    0x5c  Code  Gb  transport-header.o [8]
emReallySubmitIpHeader  0x0801a127    0x80  Code  Gb  dispatch.o [8]
emReceiveRawPacket      0x08008363    0x74  Code  Gb  ip-mac-receive.o [8]
emReclaimBuffers        0x2000e27c     0x1  Data  Gb  ip-stack.o [8]
emReclaimUnusedBuffers  0x08009bdf    0x16  Code  Gb  buffer-management.o [8]
emReclaimUnusedBuffersAndAmalgamate
                        0x08009cad   0x33a  Code  Gb  buffer-management.o [8]
emRejectJoinUrl         0x2000ffcf     0x1  Data  Gb  commission.o [8]
emRelayedJoinMessageHandler
                        0x0801dfdd    0x44  Code  Gb  dtls-join.o [8]
emRemoveBytesFromGenericQueue
                        0x0800e145    0x4a  Code  Gb  buffer-queue.o [8]
emRemoveConnection      0x0801faa7     0x8  Code  Gb  connection.o [8]
emRemoveRipEntry        0x0801ac43    0x62  Code  Gb  rip-neighbor.o [8]
emRemoveUnusedConnections
                        0x0801faaf    0x3a  Code  Gb  connection.o [8]
emReportTcpStatus       0x0801f907    0xd4  Code  Gb  connection.o [8]
emResetChildFrameCounters
                        0x08015853    0x30  Code  Gb  child-data.o [8]
emResetChildsTimer      0x080190c7    0x28  Code  Gb  child-aging.o [8]
emResetFragmentPointer  0x080101b1     0xc  Code  Gb  fragment.o [8]
emResetKeys             0x08014dd9    0x32  Code  Gb  distributed-key-management.o [8]
emResetNwkFrameCounter  0x0800eec9     0xe  Code  Gb  802-15-4-ccm.o [8]
emResetRipTable         0x08011fd5    0x1a  Code  Gb  rip.o [8]
emResetTftp             0x0802b8eb     0x4  Code  Gb  tftp-15-4.o [1]
emResetTftpServer       0x08028c49     0xc  Code  Gb  tftp-server.o [1]
emRestoreKeys           0x08014f23    0x3a  Code  Gb  distributed-key-management.o [8]
emRestoreMulticastSequence
                        0x08015c91    0x18  Code  Gb  multicast.o [8]
emRestoreTlsSession     0x0802bc95    0x8a  Code  Gb  tls-session-state.o [8]
emRetryCoapMessage      0x0801eb2b    0x3e  Code  Gb  coap-soc.o [8]
emRetryInit             0x0800f95b     0xe  Code  Gb  retry.o [8]
emRetrySubmit           0x0800f92d    0x2e  Code  Gb  retry.o [8]
emRetryTransmit         0x0800f969    0x1e  Code  Gb  retry.o [8]
emRetryTransmitComplete
                        0x0800f987    0x44  Code  Gb  retry.o [8]
emRetryTransmitCompleteCallback
                        0x0801a5c5    0x16  Code  Gb  dispatch.o [8]
emRipIdSequenceNumber   0x2000f97c     0x1  Data  Gb  rip.o [8]
emRipInit               0x08011fb1    0x24  Code  Gb  rip.o [8]
emRipLinkCost           0x0801b245    0x44  Code  Gb  rip-neighbor.o [8]
emRipLookupNextHop      0x08012719    0x50  Code  Gb  rip.o [8]
emRipNeighborInit       0x0801af03    0x12  Code  Gb  rip-neighbor.o [8]
emRipTable              0x2000f988   0x500  Data  Gb  rip.o [8]
emRouterCount           0x2000f97d     0x1  Data  Gb  rip.o [8]
emRouterDowngradeThreshold
                        0x2000e3ad     0x1  Data  Gb  router-selection.o [8]
emRouterIndex           0x0801ad31    0x2a  Code  Gb  rip-neighbor.o [8]
emRouterOrLurkerIndexByLongId
                        0x0801ad69    0x44  Code  Gb  rip-neighbor.o [8]
emRouterRebootSuccess   0x0800d9bb    0x74  Code  Gb  join.o [8]
emRouterUpgradeThreshold
                        0x2000e3ac     0x1  Data  Gb  router-selection.o [8]
emRssiToQuality         0x0801b0ed     0xe  Code  Gb  rip-neighbor.o [8]
emRunHandshake          0x0802a645    0xf4  Code  Gb  tls-handshake.o [8]
emSaveNetwork           0x0800b2b1    0xd8  Code  Gb  ip-stack.o [8]
emSavedTlsSessions      0x2000ffb2     0x2  Data  Gb  tls-session-state.o [8]
emScanCommandTransmitCompleteIsr
                        0x0801dbcd    0x60  Code  Gb  scan.o [8]
emScanEvent             0x2000e2c4     0xc  Data  Gb  scan.o [8]
emScanReturn            0x0800cf49   0x110  Code  Gb  join.o [8]
emScanTimerIsr          0x0801da9d    0xa2  Code  Gb  scan.o [8]
emSecurityIncrementOutgoingFrameCounter
                        0x0800eeab    0x18  Code  Gb  802-15-4-ccm.o [8]
emSecurityInit          0x0800eee5    0x22  Code  Gb  802-15-4-ccm.o [8]
emSecurityReadFrameCounterToken
                        0x0800ee93    0x18  Code  Gb  802-15-4-ccm.o [8]
emSecurityToUart        0x2000f709     0x1  Data  Gb  dispatch.o [8]
emSendAddressQuery      0x08026999    0x4e  Code  Gb  address-management.o [8]
emSendAddressSolicitOrRelease
                        0x08026ab1    0xda  Code  Gb  address-management.o [8]
emSendBeacons           0x2000e30c     0x1  Data  Gb  association.o [8]
emSendDhcpAddressRequest
                        0x08020393    0x40  Code  Gb  dhcp.o [8]
emSendDhcpLeaseQuery    0x080205d1    0x9c  Code  Gb  dhcp.o [8]
emSendDhcpRouterIdRequest
                        0x080203d3    0x50  Code  Gb  dhcp.o [8]
emSendIcmpErrorMessage  0x08028883    0x2e  Code  Gb  icmp.o [8]
emSendIcmpErrorMessageToDest
                        0x080288b1    0x2a  Code  Gb  icmp.o [8]
emSendIcmpMessage       0x08028805    0x7e  Code  Gb  icmp.o [8]
emSendJoinerEntrust     0x08016c19    0xe8  Code  Gb  commission.o [8]
emSendJpakeServerKeyExchange
                        0x0802bd25    0x8a  Code  Gb  tls-jpake.o [8]
emSendMleAdvertisement  0x0801440f    0x3e  Code  Gb  mle.o [8]
emSendMleChildIdRequest
                        0x080145ff    0x5a  Code  Gb  mle.o [8]
emSendMleChildReboot    0x080146b5    0x58  Code  Gb  mle.o [8]
emSendMleChildUpdate    0x08014659    0x5c  Code  Gb  mle.o [8]
emSendMleJoinRequest    0x080143c3    0x3a  Code  Gb  mle.o [8]
emSendMleParentRequest  0x08014463    0x46  Code  Gb  mle.o [8]
emSendMleRequest        0x08014329    0x62  Code  Gb  mle.o [8]
emSendMleRouterIdVerifyRequest
                        0x08014391    0x22  Code  Gb  mle.o [8]
emSendNetworkData       0x08013c71    0x58  Code  Gb  mle.o [8]
emSendNetworkDataRequest
                        0x08014797    0x1a  Code  Gb  mle.o [8]
emSendNetworkFragmentMleAdvertisement
                        0x0801444d    0x16  Code  Gb  mle.o [8]
emSendTcpDataToApp      0x0801faf9    0x30  Code  Gb  connection.o [8]
emSendTftpAck           0x08028c55    0x2c  Code  Gb  tftp-server.o [1]
emSendTftpPacket        0x0802b8a5    0x38  Code  Gb  tftp-15-4.o [1]
emSequenceNumberIsNewer
                        0x080151eb    0x18  Code  Gb  distributed-key-management.o [8]
emSerial0RxQueue        0x2000f1d0    0x88  Data  Lc  serial.o [1]
emSerial0TxQueue        0x2000f038    0x88  Data  Lc  serial.o [1]
emSerial1RxQueue        0x2000f258    0x88  Data  Lc  serial.o [1]
emSerial1TxQueue        0x2000f0c0    0x88  Data  Lc  serial.o [1]
emSerial3RxQueue        0x2000f2e0    0x88  Data  Lc  serial.o [1]
emSerial3TxQueue        0x2000f148    0x88  Data  Lc  serial.o [1]
emSerialBlocking        0x08007360     0x4  Data  Gb  serial.o [1]
emSerialPortModes       0x0800734c     0x4  Data  Gb  serial.o [1]
emSerialRegAddress      0x08004aec    0x24  Data  Gb  analogue.o [8]
emSerialRxError         0x2000f368     0x4  Data  Gb  serial.o [1]
emSerialRxErrorIndex    0x2000f36c     0x8  Data  Gb  serial.o [1]
emSerialRxQueueSizes    0x0802dfd0     0x8  Data  Gb  serial.o [1]
emSerialRxQueueWraps    0x08007358     0x8  Data  Gb  serial.o [1]
emSerialRxQueues        0x2000e204    0x10  Data  Gb  serial.o [1]
emSerialTransmitCallback
                        0x2000f710     0x4  Data  Gb  dispatch.o [8]
emSerialTxQueueSizes    0x08007344     0x8  Data  Gb  serial.o [1]
emSerialTxQueueWraps    0x08007350     0x8  Data  Gb  serial.o [1]
emSerialTxQueues        0x2000e1f4    0x10  Data  Gb  serial.o [1]
emSetAllSleepyChildFlags
                        0x080153bf    0x36  Code  Gb  child-data.o [8]
emSetAttachComplete     0x0800c89d     0x6  Code  Gb  join.o [8]
emSetBufferLength       0x0800a04f    0x8e  Code  Gb  buffer-management.o [8]
emSetBufferLengthFromEnd
                        0x0800a0dd    0x54  Code  Gb  buffer-management.o [8]
emSetBufferLink         0x0800a151    0x34  Code  Gb  buffer-management.o [8]
emSetChildAddresses     0x08015699    0xca  Code  Gb  child-data.o [8]
emSetCommissionState    0x08016af9    0xd8  Code  Gb  commission.o [8]
emSetCommissioningMacKey
                        0x0800d36d    0x1a  Code  Gb  join.o [8]
emSetDefaultGlobalPrefix
                        0x080161a5    0x26  Code  Gb  global-prefix.o [8]
emSetExtendedPanId      0x0800d0c7     0xc  Code  Gb  join.o [8]
emSetIncomingMleState   0x0801b067    0x20  Code  Gb  rip-neighbor.o [8]
emSetIncomingTransportHeaderLength
                        0x0802637d    0x26  Code  Gb  transport-header.o [8]
emSetIslandId           0x0801d455     0xa  Code  Gb  network-fragmentation.o [8]
emSetJoinComplete       0x0800c899     0x4  Code  Gb  join.o [8]
emSetLeaderData         0x080181c3    0x2e  Code  Gb  network-data.o [8]
emSetLegacyUla          0x080161f9     0x2  Code  Gb  global-prefix.o [8]
emSetLinkLocalIdentifier
                        0x0801923b     0xa  Code  Gb  ip-address.o [8]
emSetMacForwardingDestination
                        0x0800c1bb    0x96  Code  Gb  ip-packet-header.o [8]
emSetMacLongDestination
                        0x0800c183    0x14  Code  Gb  ip-packet-header.o [8]
emSetMacShortDestination
                        0x0800c14b    0x2c  Code  Gb  ip-packet-header.o [8]
emSetMeshLocalIdentifier
                        0x08019231     0xa  Code  Gb  ip-address.o [8]
emSetNetworkDataTlvLength
                        0x08018485    0xde  Code  Gb  network-data.o [8]
emSetNetworkId          0x0800d125    0x28  Code  Gb  join.o [8]
emSetNetworkStatus      0x0800ae1d    0x28  Code  Gb  ip-stack.o [8]
emSetNodeId             0x0800adad    0x26  Code  Gb  ip-stack.o [8]
emSetNodeType           0x0800ab3d    0x6c  Code  Gb  ip-stack.o [8]
emSetOutgoingLinkQuality
                        0x0801b1c3    0x14  Code  Gb  rip-neighbor.o [8]
emSetPanId              0x0800add7    0x1a  Code  Gb  ip-stack.o [8]
emSetPhyRadioChannel    0x08004929    0x10  Code  Gb  analogue.o [8]
emSetPhyRadioPower      0x08004947    0xe4  Code  Gb  analogue.o [8]
emSetRadioPower         0x0800adf1    0x1a  Code  Gb  ip-stack.o [8]
emSetReservedBufferSpace
                        0x0800a1b9    0x36  Code  Gb  buffer-management.o [8]
emSetSequenceNumber     0x080151e5     0x6  Code  Gb  distributed-key-management.o [8]
emSetSleepyBroadcast    0x0801f129    0x22  Code  Gb  jit.o [8]
emSetTftpBootloaderRemoteAddress
                        0x0802baad    0x34  Code  Gb  tftp-bootloader.o [1]
emSetThreadJoin         0x0800d09b    0x16  Code  Gb  join.o [8]
emSetTransportChecksum  0x0801a2b3    0x4a  Code  Gb  dispatch.o [8]
emSha256Finish          0x0802601d    0x70  Code  Gb  sha256.o [8]
emSha256Hash            0x08026095    0x28  Code  Gb  sha256.o [8]
emSha256HashBytes       0x08025fb9    0x64  Code  Gb  sha256.o [8]
emSha256HmacFinish      0x0802611b    0x2e  Code  Gb  sha256.o [8]
emSha256HmacHash        0x08026151    0x3a  Code  Gb  sha256.o [8]
emSha256Start           0x08025e9d     0xe  Code  Gb  sha256.o [8]
emShortInterfaceIdPrefix
                        0x080194b4     0x8  Data  Gb  ip-address.o [8]
emSleepyBroadcastHeader
                        0x2000ffae     0x2  Data  Gb  jit.o [8]
emSplitBuffer           0x0800a489    0x70  Code  Gb  buffer-management.o [8]
emStackCoapPort         0x2000e2d0     0x2  Data  Gb  transport-header.o [8]
emStackConfiguration    0x2000ff06     0x2  Data  Gb  ip-stack.o [8]
emStackEventQueue       0x2000f4c0     0x8  Data  Gb  ip-stack.o [8]
emStackTask             0x2000f4bc     0x1  Data  Gb  ip-stack.o [8]
emStandAloneEncryptBlock
                        0x08008711    0x54  Code  Gb  aes.o [8]
emStartAdcTempReading   0x08005b57     0x8  Code  Gb  phy.o [8]
emStartAppCommissioning
                        0x0801797f    0xa8  Code  Gb  commission.o [8]
emStartAttach           0x0800d471    0x32  Code  Gb  join.o [8]
emStartBeacons          0x0800d0d9    0x40  Code  Gb  join.o [8]
emStartConnectionTimerMs
                        0x0801f8d3    0x34  Code  Gb  connection.o [8]
emStartConnectionTimerQs
                        0x0801f8b9    0x1a  Code  Gb  connection.o [8]
emStartEndDeviceRebootTimer
                        0x0800da2f    0x3a  Code  Gb  join.o [8]
emStartJoinClient       0x0801e101    0xa2  Code  Gb  dtls-join.o [8]
emStartLeaderTimeout    0x0801d3ff    0x2c  Code  Gb  network-fragmentation.o [8]
emStartNewIsland        0x0801d495    0x8c  Code  Gb  network-fragmentation.o [8]
emStartParentAging      0x08018f57    0x26  Code  Gb  child-aging.o [8]
emStartPolling          0x08018ebb    0x28  Code  Gb  child-aging.o [8]
emStartRadioSetChannel  0x080048c7     0x4  Code  Gb  analogue.o [8]
emStartRip              0x0801237f    0x48  Code  Gb  rip.o [8]
emStartRouterRebootTimer
                        0x0800d98b    0x22  Code  Gb  join.o [8]
emStartRouterSelection  0x0801ef85     0x8  Code  Gb  router-selection.o [8]
emStartScan             0x0801d885    0x50  Code  Lc  scan.o [8]
emSteeringDataMatch     0x08016769     0x8  Code  Gb  commission.o [8]
emStopLeaderTimeout     0x0801d42b     0x6  Code  Gb  network-fragmentation.o [8]
emStopPolling           0x08018eb5     0x6  Code  Gb  child-aging.o [8]
emStopRip               0x080123d1    0x18  Code  Gb  rip.o [8]
emStopScan              0x0801d8e5    0x44  Code  Gb  scan.o [8]
emStoreDefaultFe8Address
                        0x08019423    0x26  Code  Gb  ip-address.o [8]
emStoreDefaultGlobalPrefix
                        0x08015cb1    0x18  Code  Gb  global-prefix.o [8]
emStoreDefaultIpAddress
                        0x080193e7    0x26  Code  Gb  ip-address.o [8]
emStoreGp16             0x08019333     0xe  Code  Gb  ip-address.o [8]
emStoreGp64             0x08019351     0xc  Code  Gb  ip-address.o [8]
emStoreInt32u           0x080098ef    0x1c  Code  Gb  byte-utilities.o [8]
emStoreIpSourceAddress  0x08015f53    0xaa  Code  Gb  global-prefix.o [8]
emStoreIpv6Header       0x0801d017    0x44  Code  Gb  6lowpan-header.o [8]
emStoreLegacyUla        0x08015cdd     0x2  Code  Gb  global-prefix.o [8]
emStoreLongFe8Address   0x08019371    0x12  Code  Gb  ip-address.o [8]
emStoreMulticastSequence
                        0x08015c75    0x1c  Code  Gb  multicast.o [8]
emStoreShortFe8Address  0x08019383    0x12  Code  Gb  ip-address.o [8]
emStoreShortInterfaceId
                        0x0801925b    0x1e  Code  Gb  ip-address.o [8]
emStoreTftpFileChunk    0x08029049    0x4e  Code  Gb  tftp-bootloader-server.o [1]
emStoreUdpHeader        0x0802653d    0x3a  Code  Gb  transport-header.o [8]
emStrcmp                0x08009993    0x14  Code  Gb  byte-utilities.o [8]
emStringToUnsignedInt   0x080214e9    0x86  Code  Gb  command-interpreter2-util.o [1]
emStrlen                0x08009967    0x2c  Code  Gb  byte-utilities.o [8]
emSubmitCoapMessage     0x08010cdd   0x17a  Code  Gb  coap.o [8]
emSubmitDtlsPayload     0x0801fc83    0xb2  Code  Gb  dtls.o [8]
emSubmitIndirectOrRetry
                        0x0801a1a7    0xfe  Code  Gb  dispatch.o [8]
emSubmitRelayedJoinPayload
                        0x0801e021    0x40  Code  Gb  dtls-join.o [8]
emSubtractInt48uCounters
                        0x0801f617    0x2c  Code  Gb  tls-record-util.o [8]
emSwitchToNetworkKey    0x0801501f    0x6a  Code  Gb  distributed-key-management.o [8]
emSynthFreqOffset       0x2000ffbe     0x1  Data  Gb  analogue.o [8]
emTaskCount             0x0802ded0     0x1  Data  Gb  ember-ip-configuration.o [1]
emTaskDetermineNextEvent
                        0x0800e361    0x28  Code  Lc  event-control.o [8]
emTaskEnableIdling      0x0800e48b     0x6  Code  Gb  event-control.o [8]
emTasks                 0x2000f00c    0x24  Data  Gb  ember-ip-configuration.o [1]
emTcpConnectionTimeout  0x08028909     0x2  Code  Gb  tcp-stub.o [8]
emTcpSendTlsRecord      0x08028903     0x2  Code  Gb  tcp-stub.o [8]
emTftpBlockNumber       0x2000f892     0x2  Data  Gb  tftp.o [1]
emTftpBlockSize         0x2000e218     0x2  Data  Gb  tftp.o [1]
emTftpBootloaderRemoteAddress
                        0x2000ed2a     0x2  Data  Gb  tftp-bootloader.o [1]
emTftpListen            0x0802b7e9    0x78  Code  Gb  tftp.o [1]
emTftpListenStatusHandler
                        0x0802b8e9     0x2  Code  Gb  tftp-15-4.o [1]
emTftpLocalTid          0x2000e216     0x2  Data  Gb  tftp.o [1]
emTftpRemoteIp          0x2000f3c4    0x10  Data  Gb  tftp.o [1]
emTftpRemoteTid         0x2000e214     0x2  Data  Gb  tftp.o [1]
emTftpScripting         0x2000ffba     0x1  Data  Gb  tftp.o [1]
emTftpServerStatusHandler
                        0x08029019    0x30  Code  Gb  tftp-bootloader-server.o [1]
emThreadEncryptionEnabled
                        0x2000e2bc     0x1  Data  Gb  distributed-key-management.o [8]
emTlsProcessIncoming    0x0802ad87   0x20e  Code  Gb  tls-ccm-record.o [8]
emTlsSendAlarm          0x0801f5a7    0x4c  Code  Gb  tls-record-util.o [8]
emTlsSendBuffer         0x0802ad25    0x56  Code  Gb  tls-ccm-record.o [8]
emTlsSendBufferedApplicationData
                        0x0801f53f    0x68  Code  Gb  tls-record-util.o [8]
emTlsSetState           0x0802a743    0x4c  Code  Gb  tls-handshake.o [8]
emTlsStatusHandler      0x0802890b     0x4  Code  Gb  tcp-stub.o [8]
emTokenLength           0x080214c3     0xc  Code  Gb  command-interpreter2-util.o [1]
emTokenPointer          0x080214b5     0xe  Code  Gb  command-interpreter2-util.o [1]
emTrackNextEvent        0x0800e30d    0x24  Code  Lc  event-control.o [8]
emTransportChecksum     0x0802640f    0xb2  Code  Gb  transport-header.o [8]
emTruncateTlsStateBuffer
                        0x0801f7b5    0x30  Code  Gb  tls-record-util.o [8]
emTxStepTimeAltRfPath   0x2000e245     0x1  Data  Gb  analogue.o [8]
emUdpCommissionPort     0x2000e2b8     0x2  Data  Gb  dtls-join.o [8]
emUdpJoinPort           0x2000e2b6     0x2  Data  Gb  dtls-join.o [8]
emUdpSendDtlsRecord     0x0801fe0d    0x52  Code  Gb  dtls.o [8]
emUnassignRipId         0x0801b007    0x42  Code  Gb  rip-neighbor.o [8]
emUnassignShortId       0x08016373    0x18  Code  Gb  address-cache.o [8]
emUncompressContextPrefix
                        0x0801060f    0x5a  Code  Gb  context-table.o [8]
emUnicastTable          0x2000fed4    0x10  Data  Gb  unicast-table.o [8]
emUnicastTableInit      0x08015291     0x4  Code  Gb  unicast-table.o [8]
emUnmodifyInterfaceId   0x080192d1    0x10  Code  Gb  ip-address.o [8]
emUnsecuredPassthroughPort
                        0x2000f70c     0x2  Data  Gb  dispatch.o [8]
emUpdateIncomingLinkQuality
                        0x0801b11d    0x9e  Code  Gb  rip-neighbor.o [8]
emUpdateNetworkData     0x08018689    0xc8  Code  Gb  network-data.o [8]
emUpdateOutgoingFlight  0x0802af9d    0xde  Code  Gb  tls-ccm-record.o [8]
emUseAddressManagement  0x2000e42d     0x1  Data  Gb  address-management.o [8]
emUseParentLongId       0x2000ffdd     0x1  Data  Gb  command.o [8]
emUsePresharedTlsSessionState
                        0x2000ffb0     0x1  Data  Gb  tls-session-state.o [8]
emVcoAutoTuneEnabled    0x2000e241     0x1  Data  Gb  analogue.o [8]
emVectorAdd             0x0800e2ab    0x50  Code  Gb  buffer-queue.o [8]
emVectorRef             0x0800e271    0x32  Code  Gb  buffer-queue.o [8]
emVectorSearch          0x0800e20f    0x5c  Code  Gb  buffer-queue.o [8]
emVerifyLocalServerData
                        0x08027689    0x3a  Code  Gb  local-server-data.o [8]
emWakeupKeepIncomingPacketIsr
                        0x0800a88b     0x4  Code  Gb  wakeup-stubs.o [8]
emWakeupMessageFrameCounter
                        0x0800a887     0x4  Code  Gb  wakeup-stubs.o [8]
emWriteCurrentTime      0x0800b011    0x18  Code  Gb  ip-stack.o [8]
emWriteHexInternal      0x08009691    0x2a  Code  Gb  serial-printf.o [1]
emWriteJPakeData        0x0802971d    0x44  Code  Gb  tls-handshake.o [8]
emZigbeeNetworkSecurityLevel
                        0x2000e18d     0x1  Data  Gb  ember-ip-configuration.o [1]
emberActiveScanHandler  0x0801e6d9    0xee  Code  Gb  scan-debug.o [1]
emberAddSteeringEui64   0x08017b0b    0x1a  Code  Gb  commission.o [8]
emberAddressConfigurationChange
                        0x08027149    0x34  Code  Gb  address-configuration-debug.o [1]
emberAfFlush            0x08028c29    0x14  Code  Gb  debug-print.o [1]
emberAfInit             0x080106d1    0x12  Code  Gb  thread-bookkeeping.o [1]
emberAfInitCallback     0x0801b96d    0x4c  Code  Gb  client-implementation.o [1]
emberAfMain             0x080106cd     0x4  Code  Gb  thread-bookkeeping.o [1]
emberAfMainCallback     0x0800a7ab     0x2  Code  Gb  thread-callback-stubs.o [1]
emberAfMarkApplicationBuffersCallback
                        0x0800a7af     0x2  Code  Gb  thread-callback-stubs.o [1]
emberAfOkToIdle         0x080106c5     0x4  Code  Gb  thread-bookkeeping.o [1]
emberAfOkToSleep        0x080106bd     0x4  Code  Gb  thread-bookkeeping.o [1]
emberAfPluginCliTickCallback
                        0x080218d9    0x1e  Code  Gb  cli.o [1]
emberAfPluginHeartbeatTickCallback
                        0x08021915    0x24  Code  Gb  heartbeat.o [1]
emberAfPluginIdleSleepActive
                        0x080106c9     0x4  Code  Gb  thread-bookkeeping.o [1]
emberAfPluginIdleSleepActiveCallback
                        0x0800a7a9     0x2  Code  Gb  thread-callback-stubs.o [1]
emberAfPluginIdleSleepOkToIdleCallback
                        0x0800a7a5     0x4  Code  Gb  thread-callback-stubs.o [1]
emberAfPluginIdleSleepOkToSleepCallback
                        0x0800a79f     0x4  Code  Gb  thread-callback-stubs.o [1]
emberAfPluginIdleSleepTickCallback
                        0x08021939    0xa4  Code  Gb  idle-sleep.o [1]
emberAfPluginIdleSleepWakeUp
                        0x080106c1     0x4  Code  Gb  thread-bookkeeping.o [1]
emberAfPluginIdleSleepWakeUpCallback
                        0x0800a7a3     0x2  Code  Gb  thread-callback-stubs.o [1]
emberAfPrint            0x08028a5b     0xc  Code  Gb  debug-print.o [1]
emberAfPrintActiveArea  0x2000ea7e     0x2  Data  Gb  debug-print.o [1]
emberAfPrintBigEndianEui64
                        0x08028adf     0x4  Code  Gb  debug-print.o [1]
emberAfPrintBuffer      0x08028ac9    0x16  Code  Gb  debug-print.o [1]
emberAfPrintEnabled     0x08028a15    0x20  Code  Gb  debug-print.o [1]
emberAfPrintExtendedPanId
                        0x08028ae3     0x2  Code  Gb  debug-print.o [1]
emberAfPrintIpv6Address
                        0x08028c03     0x4  Code  Gb  debug-print.o [1]
emberAfPrintIpv6Fields  0x08028b09    0xfa  Code  Gb  debug-print.o [1]
emberAfPrintIpv6Prefix  0x08028c07     0x4  Code  Gb  debug-print.o [1]
emberAfPrintln          0x08028a67     0xa  Code  Gb  debug-print.o [1]
emberAfTftpBootloaderInit
                        0x080218cd     0xc  Code  Gb  tftp-bootload.o [1]
emberAfTick             0x080106e3    0x1e  Code  Gb  thread-bookkeeping.o [1]
emberAfTickCallback     0x0800a7ad     0x2  Code  Gb  thread-callback-stubs.o [1]
emberAllocateMemoryForPacketHandler
                        0x0800ee51     0x4  Code  Gb  ember-ip-configuration.o [1]
emberAttachToNetwork    0x0800c707    0x24  Code  Gb  join.o [8]
emberAttachToNetworkReturn
                        0x0801bb69    0x4a  Code  Gb  client-implementation.o [1]
emberBecomeCommissioner
                        0x08017cdd    0x42  Code  Gb  commission.o [8]
emberBecomeCommissionerReturn
                        0x0800a83d     0x2  Code  Gb  thread-callback-stubs.o [1]
emberCalibrateVref      0x080045bf    0x1e  Code  Gb  analogue.o [8]
emberCancelAllEvents    0x08010729    0x34  Code  Gb  event-queue.o [8]
emberChildId            0x080157ff    0x1c  Code  Gb  child-data.o [8]
emberChildIndex         0x0800827d    0x38  Code  Gb  child-table.o [8]
emberChildLongIndex     0x080082b5    0x60  Code  Gb  child-table.o [8]
emberChildTableSize     0x2000e160     0x1  Data  Gb  ember-ip-configuration.o [1]
emberCoapDecodeUri      0x08011341    0x64  Code  Gb  coap.o [8]
emberCoapEncodeUri      0x08010c65    0x78  Code  Gb  coap.o [8]
emberCoapIsRequest      0x080113a5     0xc  Code  Gb  coap.o [8]
emberCoapMessageHandler
                        0x0801bbcb    0x5c  Code  Gb  client-implementation.o [1]
emberCoapRespond        0x08011303     0x4  Code  Gb  coap.o [8]
emberCoapSend           0x08010e5d    0x48  Code  Gb  coap.o [8]
emberCoapSendUri        0x08010f3b    0x58  Code  Gb  coap.o [8]
emberCommandArgumentCount
                        0x080214a9     0xc  Code  Gb  command-interpreter2-util.o [1]
emberCommandErrorHandler
                        0x0802c27d    0x2a  Code  Gb  command-interpreter2-error.o [1]
emberCommandErrorNames  0x0802c41c    0x20  Data  Gb  command-interpreter2-error.o [1]
emberCommandReaderInit  0x08021499    0x10  Code  Gb  command-interpreter2-util.o [1]
emberCommandTable       0x0802e3fc    0xc0  Data  Gb  thread-cli.o [1]
emberCommissionNetwork  0x0800d2df    0x8e  Code  Gb  join.o [8]
emberCommissionNetworkReturn
                        0x0800a83f     0x2  Code  Gb  thread-callback-stubs.o [1]
emberCommissionerStatusHandler
                        0x0800a841     0x2  Code  Gb  thread-callback-stubs.o [1]
emberConfigureGateway   0x080272c5   0x1a4  Code  Gb  local-server-data.o [8]
emberConfigureGatewayReturn
                        0x0800a843     0x2  Code  Gb  thread-callback-stubs.o [1]
emberConfigureNetwork   0x0800c5c5    0x2a  Code  Gb  join.o [8]
emberCopyLinkedBuffers  0x0800a3c1    0x1a  Code  Gb  buffer-management.o [8]
emberCounterHandler     0x0800a845     0x2  Code  Gb  thread-callback-stubs.o [1]
emberDebugAssert        0x08006de9     0xa  Code  Gb  debug.o [8]
emberDebugPrintf        0x08006e65    0x40  Code  Gb  debug.o [8]
emberDebugReportRestore
                        0x08006e5f     0x6  Code  Gb  debug.o [8]
emberDhcpServerChange   0x08027079    0x3a  Code  Gb  dhcp-client.o [1]
emberEndDevicePollTimeout
                        0x2000e18c     0x1  Data  Gb  ember-ip-configuration.o [1]
emberEnergyScanHandler  0x0801e7db     0xa  Code  Gb  scan-debug.o [1]
emberEui64              0x0800ae0f     0x6  Code  Gb  ip-stack.o [8]
emberEventDelayUpdatedFromIsrHandler
                        0x0800a847     0x2  Code  Gb  thread-callback-stubs.o [1]
emberEventGetRemainingMs
                        0x08010765    0x28  Code  Gb  event-queue.o [8]
emberEventIsScheduled   0x0801075d     0x8  Code  Gb  event-queue.o [8]
emberEventSetDelayMs    0x080108ab    0x8a  Code  Gb  event-queue.o [8]
emberEventSetInactive   0x08010935    0x56  Code  Gb  event-queue.o [8]
emberFetchHighLowInt16u
                        0x080098d3     0x4  Code  Gb  byte-utilities.o [8]
emberFetchLowHighInt16u
                        0x080098cd     0x6  Code  Gb  byte-utilities.o [8]
emberFormNetwork        0x0800c5ef    0x70  Code  Gb  join.o [8]
emberFormNetworkReturn  0x0800a849     0x2  Code  Gb  thread-callback-stubs.o [1]
emberFreeMemoryForPacketHandler
                        0x0800ee55     0x2  Code  Gb  ember-ip-configuration.o [1]
emberGetCommissioner    0x08017a35    0x94  Code  Gb  commission.o [8]
emberGetExtendedPanIdArgument
                        0x080216fd    0x1a  Code  Gb  command-interpreter2-util.o [1]
emberGetGlobalAddressReturn
                        0x0801aa75    0x1e  Code  Gb  global-address-prefix-debug.o [1]
emberGetGlobalAddresses
                        0x0800af7b    0x5a  Code  Gb  ip-stack.o [8]
emberGetGlobalPrefixReturn
                        0x0801aa93    0x1c  Code  Gb  global-address-prefix-debug.o [1]
emberGetGlobalPrefixes  0x0800afd5    0x3c  Code  Gb  ip-stack.o [8]
emberGetIpArgument      0x0802185b     0x4  Code  Gb  command-interpreter2-util.o [1]
emberGetIpPrefixArgument
                        0x0802185f     0x4  Code  Gb  command-interpreter2-util.o [1]
emberGetLinkedBuffersByte
                        0x0800a3a7     0xc  Code  Gb  buffer-management.o [8]
emberGetLinkedBuffersLowHighInt16u
                        0x0800a3db    0x20  Code  Gb  buffer-management.o [8]
emberGetLocalIpAddress  0x0800af0b    0x70  Code  Gb  ip-stack.o [8]
emberGetNestedCommand   0x08021863    0x20  Code  Gb  command-interpreter2-util.o [1]
emberGetNetworkParameters
                        0x0800ae45    0xb6  Code  Gb  ip-stack.o [8]
emberGetNodeId          0x0800ada9     0x4  Code  Gb  ip-stack.o [8]
emberGetPanId           0x0800add3     0x4  Code  Gb  ip-stack.o [8]
emberGetRadioChannel    0x0800ae0b     0x4  Code  Gb  ip-stack.o [8]
emberGetStringArgument  0x08021691    0x6c  Code  Gb  command-interpreter2-util.o [1]
emberGetVersions        0x0800ee2d    0x24  Code  Gb  ember-ip-configuration.o [1]
emberGetVersionsReturn  0x0801f46d    0x56  Code  Gb  version-debug.o [1]
emberHexToInt           0x08021883    0x1e  Code  Gb  command-interpreter2-util.o [1]
emberIcmpListen         0x0802cf89     0x4  Code  Gb  icmp-simple.o [8]
emberIncomingIcmpHandler
                        0x08028911    0x98  Code  Gb  icmp-debug.o [1]
emberInit               0x0800ac8b    0x60  Code  Gb  ip-stack.o [8]
emberInitReturn         0x08019611    0x24  Code  Gb  main.o [1]
emberIpIncomingBeaconHandler
                        0x0800a83b     0x2  Code  Gb  thread-callback-stubs.o [1]
emberIpPing             0x0802ced9    0xb0  Code  Gb  icmp-simple.o [8]
emberJoinCommissioned   0x0800c65f    0x52  Code  Gb  join.o [8]
emberJoinNetwork        0x0800c6b1    0x56  Code  Gb  join.o [8]
emberJoinNetworkReturn  0x0801bac9    0x8c  Code  Gb  client-implementation.o [1]
emberLeaderDataHandler  0x0800a851     0x2  Code  Gb  thread-callback-stubs.o [1]
emberMacIndirectTimeout
                        0x2000e186     0x2  Data  Gb  ember-ip-configuration.o [1]
emberMacPassthroughFilterHandler
                        0x0800a84b     0x4  Code  Gb  thread-callback-stubs.o [1]
emberMacPassthroughMessageHandler
                        0x0800a84f     0x2  Code  Gb  thread-callback-stubs.o [1]
emberMarkApplicationBuffers
                        0x08010701     0x4  Code  Gb  thread-bookkeeping.o [1]
emberMarkEventQueue     0x08010889    0x22  Code  Gb  event-queue.o [8]
emberMsToNextEvent      0x0800e3d3     0x4  Code  Gb  event-control.o [8]
emberMsToNextEventExtended
                        0x0800e389    0x4a  Code  Gb  event-control.o [8]
emberMsToNextQueueEvent
                        0x0801081f    0x18  Code  Gb  event-queue.o [8]
emberNetworkStatus      0x0800ae15     0x8  Code  Gb  ip-stack.o [8]
emberPollForDataReturn  0x0800a853     0x2  Code  Gb  thread-callback-stubs.o [1]
emberPollHandler        0x0800a839     0x2  Code  Gb  thread-callback-stubs.o [1]
emberPrintCommandTable  0x0802c247    0x1a  Code  Gb  command-interpreter2-error.o [1]
emberPrintCommandUsage  0x0802c1fb    0x32  Code  Gb  command-interpreter2-error.o [1]
emberPrintCommandUsageNotes
                        0x0802c22d    0x14  Code  Gb  command-interpreter2-error.o [1]
emberProcessCommandString
                        0x0802b391   0x18e  Code  Gb  command-interpreter2.o [1]
emberRadioNeedsCalibratingHandler
                        0x0800a85d     0x2  Code  Gb  thread-callback-stubs.o [1]
emberRequestDhcpAddress
                        0x080202e9    0x3a  Code  Gb  dhcp.o [8]
emberRequestDhcpAddressReturn
                        0x080270b3    0x36  Code  Gb  dhcp-client.o [1]
emberRequestSlaacAddress
                        0x08020323    0x70  Code  Gb  dhcp.o [8]
emberRequestSlaacAddressReturn
                        0x0802b1d3    0x36  Code  Gb  slaac-client.o [1]
emberResetMicro         0x0800b123     0x4  Code  Gb  ip-stack.o [8]
emberResetMicroHandler  0x0800a855     0x2  Code  Gb  thread-callback-stubs.o [1]
emberResetNetworkState  0x0800b0cd     0xa  Code  Gb  ip-stack.o [8]
emberResetNetworkStateReturn
                        0x0801bdf7    0x18  Code  Gb  client-implementation.o [1]
emberResumeNetwork      0x0800b127   0x140  Code  Gb  ip-stack.o [8]
emberResumeNetworkReturn
                        0x0801b9b9    0x6c  Code  Gb  client-implementation.o [1]
emberReverseMemCopy     0x08009951    0x16  Code  Gb  byte-utilities.o [8]
emberRunEventQueue      0x08010837    0x52  Code  Gb  event-queue.o [8]
emberRunEvents          0x0800e3d7    0x30  Code  Gb  event-control.o [8]
emberRunTask            0x0800e407    0x28  Code  Gb  event-control.o [8]
emberScanReturn         0x0801e7e5     0xa  Code  Gb  scan-debug.o [1]
emberSendSteeringData   0x08017b45    0x4c  Code  Gb  commission.o [8]
emberSendSteeringDataReturn
                        0x0800a857     0x2  Code  Gb  thread-callback-stubs.o [1]
emberSendUdp            0x08020155    0x4e  Code  Gb  udp-simple.o [8]
emberSerialBufferTick   0x08007321     0x2  Code  Gb  serial.o [1]
emberSerialGuaranteedPrintf
                        0x080072d9    0x3c  Code  Gb  serial.o [1]
emberSerialInit         0x08007091    0x6e  Code  Gb  serial.o [1]
emberSerialPrintCarriageReturn
                        0x0800986d     0x8  Code  Gb  serial-printf.o [1]
emberSerialPrintf       0x08009875    0x10  Code  Gb  serial-printf.o [1]
emberSerialPrintfLine   0x08009885    0x1c  Code  Gb  serial-printf.o [1]
emberSerialPrintfVarArg
                        0x080071f1    0x24  Code  Gb  serial.o [1]
emberSerialReadAvailable
                        0x080070ff    0x16  Code  Gb  serial.o [1]
emberSerialReadByte     0x08007115    0x94  Code  Gb  serial.o [1]
emberSerialUnused       0x08007323    0x16  Code  Gb  serial.o [1]
emberSerialWaitSend     0x080072b7    0x22  Code  Gb  serial.o [1]
emberSerialWriteAvailable
                        0x080071a9    0x24  Code  Gb  serial.o [1]
emberSerialWriteData    0x08007219    0x9e  Code  Gb  serial.o [1]
emberSetJoinKey         0x0801e0ed    0x14  Code  Gb  dtls-join.o [8]
emberSetJoiningMode     0x08017ad1    0x3a  Code  Gb  commission.o [8]
emberSetLinkedBuffersByte
                        0x0800a3b3     0xe  Code  Gb  buffer-management.o [8]
emberSetLinkedBuffersLowHighInt16u
                        0x0800a3fb    0x20  Code  Gb  buffer-management.o [8]
emberSetSecurityParameters
                        0x080151bd    0x28  Code  Gb  distributed-key-management.o [8]
emberSetSecurityParametersReturn
                        0x0800a859     0x2  Code  Gb  thread-callback-stubs.o [1]
emberSetTxPowerMode     0x080045dd    0xb8  Code  Gb  analogue.o [8]
emberSignedCommandArgument
                        0x080215bd    0x60  Code  Gb  command-interpreter2-util.o [1]
emberSlaacServerChange  0x0802b199    0x3a  Code  Gb  slaac-client.o [1]
emberSleepyChildPollTimeout
                        0x2000e188     0x4  Data  Gb  ember-ip-configuration.o [1]
emberStackIdleTimeMs    0x0800acf3    0x3a  Code  Gb  ip-stack.o [8]
emberStackPowerDown     0x0800ad7f    0x1c  Code  Gb  ip-stack.o [8]
emberStackPowerUp       0x0800ad9b     0xe  Code  Gb  ip-stack.o [8]
emberStartScan          0x0801d7d1    0xb2  Code  Gb  scan.o [8]
emberStopCommissioning  0x08017d2f    0x1e  Code  Gb  commission.o [8]
emberStopScan           0x0801d8d5    0x10  Code  Gb  scan.o [8]
emberStoreHighLowInt16u
                        0x080098e7     0x8  Code  Gb  byte-utilities.o [8]
emberStoreLowHighInt16u
                        0x080098df     0x8  Code  Gb  byte-utilities.o [8]
emberStringCommandArgument
                        0x08021631    0x5c  Code  Gb  command-interpreter2-util.o [1]
emberSwitchToNextNetworkKeyHandler
                        0x0800a85b     0x2  Code  Gb  thread-callback-stubs.o [1]
emberTaskInit           0x0800e42f    0x4e  Code  Gb  event-control.o [8]
emberTcpAcceptHandler   0x0800a85f     0x2  Code  Gb  thread-callback-stubs.o [1]
emberTcpReadHandler     0x0800a861     0x2  Code  Gb  thread-callback-stubs.o [1]
emberTcpRemoteIpAddress
                        0x08028905     0x4  Code  Gb  tcp-stub.o [8]
emberTcpStatusHandler   0x0800a863     0x2  Code  Gb  thread-callback-stubs.o [1]
emberTcpStatusName      0x0801f855    0x64  Code  Gb  connection.o [8]
emberTick               0x0800ad35    0x36  Code  Gb  ip-stack.o [8]
emberUdpHandler         0x0801be0f    0x42  Code  Gb  client-implementation.o [1]
emberUdpHandlerAlias    0x0801b901    0x6c  Code  Gb  client-implementation.o [1]
emberUdpListen          0x080201a3     0x4  Code  Gb  udp-simple.o [8]
emberUdpMulticastHandler
                        0x0800a865     0x2  Code  Gb  thread-callback-stubs.o [1]
emberUnsignedCommandArgument
                        0x0802156f    0x4e  Code  Gb  command-interpreter2-util.o [1]
emberVerifyBootloadRequest
                        0x0801be51     0x4  Code  Gb  client-implementation.o [1]
emberVersion            0x0802ded4     0xc  Data  Gb  ember-ip-configuration.o [1]
emipstack232count       0x2000f754     0x4  Data  Lc  phy.o [8]
encryptBytes            0x0800efd5    0x4c  Code  Lc  802-15-4-ccm.o [8]
encryptNonce            0x0800ef07    0x28  Code  Lc  802-15-4-ccm.o [8]
endMessage              0x0800704f    0x16  Code  Lc  debug.o [8]
endTune                 0x0802c589    0x2a  Code  Lc  buzzer.o [1]
energyScanMaxRssiDetected
                        0x2000f6dd     0x1  Data  Lc  scan.o [8]
ep                      0x2000ee2c     0x4  Data  Gb  em_usbint.o [1]
erased                  0x2000ff08     0x1  Data  Lc  sim-eeprom-internal.o [7]
eventActions            0x2000f6d4     0x1  Data  Lc  scan.o [8]
eventStartTime          0x2000f978     0x4  Data  Lc  retry.o [8]
eventStartTime          0x2000ff9a     0x2  Data  Lc  fragment.o [8]
eventStartTimeMs        0x2000fee4     0x4  Data  Lc  connection.o [8]
expandPointerNoCheck    0x08009a8b    0x10  Code  Lc  buffer-management.o [8]
extensionNextHeaders    0x2000e424     0x8  Data  Lc  6lowpan-header.o [8]
externalBorderRouterFlags
                        0x2000f5f6     0x1  Data  Lc  local-server-data.o [8]
externalRoutePrefix     0x2000f5f8     0x8  Data  Lc  local-server-data.o [8]
failedReports           0x2000ec80     0x1  Data  Lc  client-implementation.o [1]
failureTlv              0x08017084     0x4  Data  Lc  commission.o [8]
fastXtalStartup         0x2000ffc8     0x1  Data  Gb  clocks.o [4]
fault                   0x0802cd41          Code  Gb  faults.o [1]
fetchIpv6Header         0x0801c1bd    0x36  Code  Lc  6lowpan-header.o [8]
fetchOptionAndLength    0x08010c05    0x60  Code  Lc  coap.o [8]
fibToEmberStatus        0x0800a794     0x8  Data  Lc  flash.o [4]
fillBlock0              0x08012849    0x2e  Code  Lc  mle.o [8]
filterForceReCal        0x2000fefc     0x1  Data  Gb  analogue.o [8]
filterParentRequestLongId
                        0x2000f91c     0x8  Data  Lc  mle.o [8]
find6lowpanContext      0x0801053b    0x34  Code  Lc  context-table.o [8]
findBorderRouterTlv     0x08018777    0x36  Code  Lc  network-data.o [8]
findEntry               0x08015ecf    0x64  Code  Lc  global-prefix.o [8]
findEntry               0x08015a61    0x52  Code  Lc  multicast.o [8]
findMeInSubTlv          0x080275ad    0x1e  Code  Lc  local-server-data.o [8]
findNearestAddressServer
                        0x080187ad    0x50  Code  Lc  network-data.o [8]
findPrefixTlv           0x08027577    0x36  Code  Lc  local-server-data.o [8]
findPrefixTlv           0x0801059d    0x6c  Code  Lc  context-table.o [8]
finishMessage           0x08014119   0x1c6  Code  Lc  mle.o [8]
fixedEepromInfo         0x2000ea80    0x18  Data  Gb  bootloader-interface-app.o [1]
flashEraseIsActive      0x2000ffc7     0x1  Data  Gb  flash.o [4]
formChannelCache        0x2000f470     0x1  Data  Lc  join.o [8]
formEnergyScanComplete  0x0800d231    0x76  Code  Lc  join.o [8]
formReturn              0x0800d21b     0xc  Code  Lc  join.o [8]
forwardJoinerDtlsEncap  0x080177b5    0xdc  Code  Lc  commission.o [8]
forwardReponseToCommissioner
                        0x0801744d    0x6e  Code  Lc  commission.o [8]
forwardToLeader         0x080174d1    0x3c  Code  Lc  commission.o [8]
fragmentTimeoutEvent    0x2000e3f0     0xc  Data  Lc  fragment.o [8]
fragmentTimeoutEventActions
                        0x0802ef8c    0x10  Data  Lc  fragment.o [8]
fragmentTimeoutEventHandler
                        0x0800fe59    0x82  Code  Lc  fragment.o [8]
framePendingSetInOutgoingAck
                        0x2000f752     0x2  Data  Lc  phy.o [8]
freePtr                 0x2000ff0a     0x2  Data  Lc  sim-eeprom-internal.o [7]
generateCreatorInfo     0x08007829    0x22  Code  Lc  sim-eeprom-internal.o [7]
generateKek             0x0801e061    0x82  Code  Lc  dtls-join.o [8]
generateKeyPair         0x08011aaf    0x86  Code  Lc  jpake-ecc-mbedtls.o [8]
generateMeshLocalIdentifier
                        0x0800c4e3    0x32  Code  Lc  join.o [8]
generateZeroKnowledgeProof
                        0x08011c35    0xbe  Code  Lc  jpake-ecc-mbedtls.o [8]
genericResponseHandler  0x08017b2d    0x18  Code  Lc  commission.o [8]
getChildOrNeighborShortId
                        0x08016237    0x4c  Code  Lc  address-cache.o [8]
getCurrentKeyData       0x08014e0b    0x1c  Code  Lc  distributed-key-management.o [8]
getIpArgument           0x0802182d    0x2e  Code  Lc  command-interpreter2-util.o [1]
getKey                  0x0801513f    0x24  Code  Lc  distributed-key-management.o [8]
getOption               0x08010f93    0x8a  Code  Lc  coap.o [8]
getOtherKeyData         0x08014e27    0x14  Code  Lc  distributed-key-management.o [8]
getOutputFifoSpace      0x080071cd    0x18  Code  Lc  serial.o [1]
getRandomBackoff        0x08005cf1    0x3e  Code  Gb  phy-common.o [8]
getSizeInWords          0x08009a9b    0x14  Code  Lc  buffer-management.o [8]
getTlvData              0x0801657d    0x3a  Code  Lc  commission.o [8]
getTlvData              0x0802666d    0x12  Code  Lc  address-management.o [8]
gpioCfgPowerDown        0x2000e1a4     0xc  Data  Gb  micro.o [1]
gpioCfgPowerUp          0x2000e194     0xc  Data  Gb  micro.o [1]
gpioOutPowerDown        0x2000e1a0     0x4  Data  Gb  micro.o [1]
gpioOutPowerUp          0x2000e190     0x4  Data  Gb  micro.o [1]
gpioRadioPowerBoardMask
                        0x2000f034     0x4  Data  Gb  micro.o [1]
guardRegionPlaceHolder  0x20001780    0x20  Data  Gb  cstartup-common.o [1]
halAdcCalibrate         0x0800438b    0x4a  Code  Gb  adc.o [1]
halAdcIsr               0x08004191    0x68  Code  Gb  adc.o [1]
halAppAddressTable      0x08004000    0xac  Data  Gb  cstartup-common.o [1]
halAppBootloaderEraseRawStorage
                        0x0802bc0d    0x24  Code  Gb  bootloader-interface-app.o [1]
halAppBootloaderImageIsValid
                        0x0802bbb1    0x2e  Code  Gb  bootloader-interface-app.o [1]
halAppBootloaderImageIsValidReset
                        0x0802bb87    0x2a  Code  Gb  bootloader-interface-app.o [1]
halAppBootloaderInfo    0x0802bb3d    0x4a  Code  Gb  bootloader-interface-app.o [1]
halAppBootloaderInstallNewImage
                        0x0802bbdf    0x18  Code  Gb  bootloader-interface-app.o [1]
halAppBootloaderStorageBusy
                        0x0802bc31    0x18  Code  Gb  bootloader-interface-app.o [1]
halAppBootloaderWriteRawStorage
                        0x0802bbf7    0x16  Code  Gb  bootloader-interface-app.o [1]
halBaseBandIsr          0x0802cf8c          Code  Wk  isr-stubs.o [1]
halBootloaderAddressTable
                        0x08000000    0x54  Data  Gb  cstartup-common.o [1]
halBusFaultIsr          0x0802cd31          Code  Gb  faults.o [1]
halButtonIsr            0x0800a79d     0x2  Code  Gb  thread-callback-stubs.o [1]
halButtonPinState       0x08009249    0x22  Code  Gb  button.o [1]
halCommonBlockUntilXtal
                        0x080053d3    0x74  Code  Gb  clocks.o [4]
halCommonCalibratePads  0x08004d25    0x20  Code  Gb  micro-common-internal.o [4]
halCommonCrc16          0x0800edc5    0x24  Code  Gb  crc.o [1]
halCommonDelayMicroseconds
                        0x08004e19    0x36  Code  Gb  micro-common-internal.o [4]
halCommonDelayMilliseconds
                        0x08004e4f    0x1c  Code  Gb  micro-common-internal.o [4]
halCommonDisableVreg1v8
                        0x0800452d     0x2  Code  Gb  micro-common.o [1]
halCommonEnableVreg1v8  0x0800452f     0x2  Code  Gb  micro-common.o [1]
halCommonGetInt16uMillisecondTick
                        0x0800ec4d     0xa  Code  Gb  system-timer.o [4]
halCommonGetInt16uQuarterSecondTick
                        0x0800ec57     0xc  Code  Gb  system-timer.o [4]
halCommonGetInt32uMillisecondTick
                        0x0800ec63    0x16  Code  Gb  system-timer.o [4]
halCommonGetRandom      0x080087ad    0x1c  Code  Gb  random.o [1]
halCommonIdleForMilliseconds
                        0x0800ec8f    0x72  Code  Gb  system-timer.o [4]
halCommonMemCompare     0x080075e7    0x18  Code  Gb  mem-util.o [1]
halCommonMemMove        0x08007515    0x86  Code  Gb  mem-util.o [1]
halCommonMemPGMCopy     0x0800759b    0x3e  Code  Gb  mem-util.o [1]
halCommonMemSet         0x080075d9     0xe  Code  Gb  mem-util.o [1]
halCommonSwitchToXtal   0x08005253     0x4  Code  Gb  clocks.o [4]
halCommonTryToSwitchToXtal
                        0x0800511f    0xea  Code  Gb  clocks.o [4]
halConvertValueToVolts  0x080043d5    0x4e  Code  Gb  adc.o [1]
halDebugIsr             0x08009513    0x88  Code  Gb  debug-jtag.o [8]
halDebugMonitorIsr      0x0802cd3d          Code  Gb  faults.o [1]
halEntryPoint           0x0802d6c1     0xe  Code  Gb  cstartup-iar.o [4]
halEntryPointMain       0x0802d6d1   0x162  Code  Gb  cstartup-iar.o [4]
halFixedAddressTable    0x08080000    0x2c  Data  Gb  cstartup-common.o [1]
halGetEm2xxResetInfo    0x08006739    0x42  Code  Gb  micro.o [1]
halGetExtendedResetInfo
                        0x0800966b     0x6  Code  Gb  cstartup-common.o [1]
halGetExtendedResetString
                        0x0800671d    0x14  Code  Gb  micro.o [1]
halGetResetInfo         0x08009663     0x8  Code  Gb  cstartup-common.o [1]
halGetResetString       0x08006711     0xc  Code  Gb  micro.o [1]
halHardFaultIsr         0x0802cd2d          Code  Gb  faults.o [1]
halInit                 0x080064c1    0x60  Code  Gb  micro.o [1]
halInternalAssertFailed
                        0x08004b29    0x2e  Code  Gb  assert-crash-handlers.o [1]
halInternalAssertFault  0x08004b25     0x4  Code  Lc  assert-crash-handlers.o [1]
halInternalBlockUntilXtal
                        0x080052e1    0xe4  Code  Gb  clocks.o [4]
halInternalCStackBottom
                        0x2000e254     0x4  Data  Lc  micro-internal.o [4]
halInternalCalibrateFastRc
                        0x0800446f     0x4  Code  Gb  micro-common.o [1]
halInternalClassifyReset
                        0x080095e5    0x7e  Code  Gb  cstartup-common.o [1]
halInternalClocksCalibrateFastRc
                        0x08005055    0x2e  Code  Gb  clocks.o [4]
halInternalClocksCalibrateSlowRc
                        0x08004fd7    0x7e  Code  Gb  clocks.o [4]
halInternalConfigFlashAccess
                        0x08004eed     0xa  Code  Gb  clocks.o [4]
halInternalContextSaveRestore
                        0x0800e695          Code  Gb  context-switch.o [4]
halInternalCrashHandler
                        0x08004b57   0x198  Code  Gb  assert-crash-handlers.o [1]
halInternalDisableMPU   0x0800a59d     0xa  Code  Gb  mpu.o [1]
halInternalDisableWatchDog
                        0x0800448d    0x12  Code  Gb  micro-common.o [1]
halInternalEnableMPU    0x0800a56d     0x2  Code  Gb  mpu.o [1]
halInternalEnableWatchDog
                        0x08004473    0x12  Code  Gb  micro-common.o [1]
halInternalFlashBlockRead
                        0x08007739    0x10  Code  Lc  sim-eeprom-internal.o [7]
halInternalFlashBlockReadSimEe2
                        0x08007749     0xe  Code  Gb  sim-eeprom-internal.o [7]
halInternalFlashErase   0x0800a6a1    0x72  Code  Gb  flash.o [4]
halInternalFlashWrite   0x0800a713    0x6c  Code  Gb  flash.o [4]
halInternalForceWriteUartData
                        0x08008f1b    0x4c  Code  Gb  uart.o [1]
halInternalGetCStackBottom
                        0x08007489     0x6  Code  Gb  micro-internal.o [4]
halInternalGetHeapBottom
                        0x08007497     0x4  Code  Gb  micro-internal.o [4]
halInternalGetHeapTop   0x0800748f     0x8  Code  Gb  micro-internal.o [4]
halInternalGetMfgTokenData
                        0x0800559d    0x5c  Code  Gb  mfg-token.o [1]
halInternalGetTokenData
                        0x0800568b    0x20  Code  Gb  token.o [1]
halInternalGetVreg      0x08004d97    0x78  Code  Gb  micro-common-internal.o [4]
halInternalIdleSleep    0x080074f9          Code  Gb  context-switch.o [4]
halInternalIncrementCounterToken
                        0x080056f3     0xe  Code  Gb  token.o [1]
halInternalInitAdc      0x08004257    0x4c  Code  Gb  adc.o [1]
halInternalInitButton   0x080091e1    0x68  Code  Gb  button.o [1]
halInternalInitCStackRegion
                        0x080073cf    0x1a  Code  Gb  micro-internal.o [4]
halInternalInitUartInterrupts
                        0x08008d79    0x20  Code  Lc  uart.o [1]
halInternalLoadMPU      0x0800a56f    0x2e  Code  Gb  mpu.o [1]
halInternalPowerDownUart
                        0x080090b9    0x12  Code  Gb  uart.o [1]
halInternalPowerUpKickXtal
                        0x080050cd    0x52  Code  Gb  clocks.o [4]
halInternalPowerUpUart  0x080090cb    0x28  Code  Gb  uart.o [1]
halInternalResetWatchDog
                        0x08004485     0x8  Code  Gb  micro-common.o [1]
halInternalRestartUart  0x080090f3     0x2  Code  Gb  uart.o [1]
halInternalScheduleSysTickInMicroseconds
                        0x08004f89    0x4e  Code  Gb  clocks.o [4]
halInternalSetMPUGuardRegionStart
                        0x0800a5a7    0x1e  Code  Gb  mpu.o [1]
halInternalSetRegTrim   0x08004d45    0x52  Code  Gb  micro-common-internal.o [4]
halInternalSetTokenData
                        0x080056ab    0x48  Code  Gb  token.o [1]
halInternalSimEeGetData
                        0x08007c3f    0x78  Code  Gb  sim-eeprom-internal.o [7]
halInternalSimEeIncrementCounter
                        0x08008115    0x82  Code  Gb  sim-eeprom-internal.o [7]
halInternalSimEeSetData
                        0x08007ef7   0x17c  Code  Gb  sim-eeprom-internal.o [7]
halInternalSimEeStartup
                        0x0800760d    0xbc  Code  Gb  sim-eeprom.o [1]
halInternalSimEeStartupCore
                        0x08007905   0x33a  Code  Gb  sim-eeprom-internal.o [7]
halInternalSleep        0x080087d5   0x4d2  Code  Gb  sleep.o [1]
halInternalStartSystemTimer
                        0x080044af    0x4c  Code  Gb  micro-common.o [1]
halInternalStartUartTx  0x08008ea3    0x68  Code  Gb  uart.o [1]
halInternalStopUartTx   0x08008f0b    0x10  Code  Gb  uart.o [1]
halInternalSwitchToXtal
                        0x08005209    0x4a  Code  Lc  clocks.o [4]
halInternalSwitchToXtal24M
                        0x08005083    0x34  Code  Lc  clocks.o [4]
halInternalSysReset     0x08007365    0x40  Code  Gb  micro-internal.o [4]
halInternalSysTickIsr   0x080052c9    0x18  Code  Gb  clocks.o [4]
halInternalUart3RxIsr   0x0800902d    0x2e  Code  Gb  uart.o [1]
halInternalUartInit     0x08008d99   0x10a  Code  Gb  uart.o [1]
halInternalUartRxIsr    0x08008fb1    0x7c  Code  Gb  uart.o [1]
halInternalUartRxPump   0x0800907d     0x2  Code  Gb  uart.o [1]
halInternalUartSetBaudRate
                        0x08004e6b    0x58  Code  Gb  micro-common-internal.o [4]
halInternalUartTxIsr    0x0800907f    0x3a  Code  Lc  uart.o [1]
halInternalWaitUartTxComplete
                        0x08008f67    0x16  Code  Gb  uart.o [1]
halInternalWakeEvent    0x2000f3ac     0x4  Data  Lc  sleep.o [1]
halInternalWatchDogEnabled
                        0x0800449f    0x10  Code  Gb  micro-common.o [1]
halIrqAIsr              0x0802cf8c          Code  Wk  isr-stubs.o [1]
halIrqBIsr              0x0800926b    0x48  Code  Gb  button.o [1]
halIrqCIsr              0x080092b3    0x48  Code  Gb  button.o [1]
halIrqDIsr              0x0802cca9    0x56  Code  Gb  em_usbint.o [1]
halManagementIsr        0x080073a5    0x2a  Code  Gb  micro-internal.o [4]
halMcuClockHz           0x08004455    0x10  Code  Gb  micro-common.o [1]
halMeasureVdd           0x08006d7f    0x4c  Code  Gb  caladc.o [4]
halMemoryFaultIsr       0x0802cd35          Code  Gb  faults.o [1]
halNmiIsr               0x0802cd29          Code  Gb  faults.o [1]
halPendSvIsr            0x0802cf8c          Code  Wk  isr-stubs.o [1]
halPeripheralClockHz    0x08004465     0xa  Code  Gb  micro-common.o [1]
halPowerDown            0x08006529    0x24  Code  Gb  micro.o [1]
halPowerUp              0x0800656d    0x22  Code  Gb  micro.o [1]
halPrintCrashData       0x08027b2b    0x5c  Code  Gb  diagnostic.o [1]
halPrintCrashDetails    0x08027925   0x1ee  Code  Gb  diagnostic.o [1]
halPrintCrashSummary    0x08027811   0x114  Code  Gb  diagnostic.o [1]
halReadAdcBlocking      0x08004373    0x18  Code  Gb  adc.o [1]
halReboot               0x08006521     0x8  Code  Gb  micro.o [1]
halRequestAdcData       0x080042f1    0x82  Code  Gb  adc.o [1]
halReserved07Isr        0x0802cf8c          Code  Wk  isr-stubs.o [1]
halReserved08Isr        0x0802cf8c          Code  Wk  isr-stubs.o [1]
halReserved09Isr        0x0802cf8c          Code  Wk  isr-stubs.o [1]
halReserved10Isr        0x0802cf8c          Code  Wk  isr-stubs.o [1]
halReserved13Isr        0x0802cf8c          Code  Wk  isr-stubs.o [1]
halResetInfo            0x20000000    0x98  Data  Gb  cstartup-common.o [1]
halResume               0x0800658f    0x1e  Code  Gb  micro.o [1]
halResumeCallback       0x0801f435     0xc  Code  Gb  em_usbhal.o [1]
halSc1Isr               0x080090f5    0x32  Code  Gb  uart.o [1]
halSc2Isr               0x0802cf8c          Code  Wk  isr-stubs.o [1]
halSc3Isr               0x0802cf8c          Code  Wk  isr-stubs.o [1]
halSc4Isr               0x0802cf8c          Code  Wk  isr-stubs.o [1]
halSecurityIsr          0x0802cf8c          Code  Wk  isr-stubs.o [1]
halSimEepromCallback    0x0800a7b1    0x82  Code  Gb  thread-callback-stubs.o [1]
halSimEepromErasePage   0x08008197    0x76  Code  Gb  sim-eeprom-internal.o [7]
halSleep                0x08008cf5     0x4  Code  Gb  sleep.o [1]
halSleepForMilliseconds
                        0x0800edbd     0x8  Code  Gb  system-timer.o [4]
halSleepTimerIsr        0x0800ec7b    0x14  Code  Gb  system-timer.o [4]
halSleepTimerIsrCallback
                        0x0800ec79     0x2  Code  Wk  system-timer.o [4]
halSleepWithOptions     0x08008cad    0x48  Code  Gb  sleep.o [1]
halStackCancelSymbolDelayA
                        0x0800e4e3    0x1c  Code  Gb  symbol-timer.o [8]
halStackDebugActive     0x08009407    0x10  Code  Gb  debug-jtag.o [8]
halStackInitTokens      0x08005605    0x86  Code  Gb  token.o [1]
halStackMacTimerIsr     0x0800869d    0x22  Code  Gb  mac-em250.o [8]
halStackModifyCStackSize
                        0x080073e9    0xa0  Code  Gb  micro-internal.o [4]
halStackOrderInt16uSymbolDelayA
                        0x0800e4ad    0x36  Code  Gb  symbol-timer.o [8]
halStackRadioPowerDownBoard
                        0x0800666b     0xe  Code  Gb  micro.o [1]
halStackRadioPowerUpBoard
                        0x08006679     0xe  Code  Gb  micro.o [1]
halStackReceiveVuartMessage
                        0x08008f7d    0x34  Code  Gb  uart.o [1]
halStackSeedRandom      0x08008785    0x18  Code  Gb  random.o [1]
halStackSymbolDelayAIsr
                        0x0800e5c5    0x44  Code  Gb  mac.o [8]
halStartAdcConversion   0x080042a3    0x4e  Code  Gb  adc.o [1]
halSvCallIsr            0x0802cf8c          Code  Wk  isr-stubs.o [1]
halSysTickIsr           0x08005e5d    0x26  Code  Gb  phy-common.o [8]
halSysTickIsrXtal       0x08005257    0x72  Code  Gb  clocks.o [4]
halSystemClockEnableCallback
                        0x080050c9     0x4  Code  Wk  clocks.o [4]
halSystemClockHz        0x08004445    0x10  Code  Gb  micro-common.o [1]
halSystemXtalHz         0x0802dee0     0x4  Data  Gb  micro-common.o [1]
halTimer1Isr            0x0802c60d    0x1a  Code  Gb  buzzer.o [1]
halTimer2Isr            0x0802cf8c          Code  Wk  isr-stubs.o [1]
halToggleLed            0x0802b6b1    0x2a  Code  Gb  led.o [1]
halUsageFaultIsr        0x0802cd39          Code  Gb  faults.o [1]
halUsbIsr               0x0802cb1b   0x18e  Code  Gb  em_usbint.o [1]
handleCommissionPost    0x0801708d    0x70  Code  Lc  commission.o [8]
hashBytes               0x08025eab   0x10e  Code  Lc  sha256.o [8]
haveExternalRoute       0x2000f5f5     0x1  Data  Lc  local-server-data.o [8]
haveIdSequenceNumber    0x2000f97e     0x1  Data  Lc  rip.o [8]
haveMeshLocalUlaPrefix  0x2000f900     0x1  Data  Lc  global-prefix.o [8]
haveNetworkData         0x2000f88c     0x1  Data  Lc  network-data.o [8]
heapMemory              0x20000000  0x1770  Data  Gb  ember-ip-configuration.o [1]
heapPointer             0x2000f734     0x4  Data  Lc  buffer-management.o [8]
helloVerifyRequestMessage
                        0x08029cf4    0x1c  Data  Lc  tls-handshake.o [8]
historyTable            0x2000ff02     0x2  Data  Lc  coap.o [8]
historyTableType        0x08011540    0x14  Data  Lc  coap.o [8]
hopLimits               0x0801c98c     0x4  Data  Lc  6lowpan-header.o [8]
iManufacturer           0x0802e61c    0x38  Data  Lc  uart.o [1]
iProduct                0x0802e654    0x3c  Data  Lc  uart.o [1]
iSerialNumber           0x2000e21c    0x24  Data  Gb  uart.o [1]
icmpListenCommand       0x0802cdb1    0x34  Code  Gb  icmp-cli.o [1]
icmpPingCommand         0x0802cde5    0x8c  Code  Gb  icmp-cli.o [1]
icmpTable               0x0802e1ec    0x30  Data  Lc  thread-cli.o [1]
idInUse                 0x080154a7    0x28  Code  Lc  child-data.o [8]
idleDelayMicroseconds   0x08004ef7    0x92  Code  Gb  clocks.o [4]
inBoostMode             0x2000ffc1     0x1  Data  Lc  micro-common-internal.o [4]
incomingIcmpMessage     0x08019fe3    0x3e  Code  Lc  dispatch.o [8]
incomingMessageHandler  0x08012c09   0xae6  Code  Lc  mle.o [8]
incomingMfglibMessage   0x08008503    0x28  Code  Lc  ip-mac-receive.o [8]
incrementNextId         0x0801aeef    0x14  Code  Lc  rip-neighbor.o [8]
indirectPool            0x2000ff18     0x2  Data  Lc  mac-indirect.o [8]
init                    0x2000ffb7     0x1  Data  Lc  main.o [1]
initialState            0x0802618c    0x20  Data  Lc  sha256.o [8]
initializeNetwork       0x0800abad    0xde  Code  Lc  ip-stack.o [8]
initializeNonce         0x0802abdb    0x2c  Code  Lc  tls-ccm-record.o [8]
initializeNonceFromAuxFrame
                        0x0800f057    0x38  Code  Lc  802-15-4-ccm.o [8]
initialized             0x2000f878     0x1  Data  Lc  eui64.o [8]
initstruct              0x080091b0    0x1c  Data  Lc  uart.o [1]
inlineMulticastByteCounts
                        0x0801c990    0x10  Data  Lc  6lowpan-header.o [8]
inlineUnicastByteCounts
                        0x0801d364     0x4  Data  Lc  6lowpan-header.o [8]
int32ToArray            0x08011e61    0x1e  Code  Lc  jpake-ecc-mbedtls.o [8]
intActiveBits           0x08028038    0x44  Data  Lc  diagnostic.o [1]
internalIpStart         0x0801cfd7    0x2c  Code  Lc  6lowpan-header.o [8]
internalSleepForMilliseconds
                        0x0800ed01    0x8c  Code  Lc  system-timer.o [4]
isHeapPointer           0x08009a6d     0xc  Code  Lc  buffer-management.o [8]
isInMessageHistory      0x08010ee5    0x26  Code  Lc  coap.o [8]
isLocalAnycastIid       0x0801610f    0x3c  Code  Lc  global-prefix.o [8]
isShortInterfaceId      0x08019245     0xa  Code  Lc  ip-address.o [8]
jPakeData               0x2000fec8     0x4  Data  Lc  jpake-ecc-mbedtls.o [8]
jitFlag                 0x2000ffac     0x2  Data  Lc  jit.o [8]
joinAttemptDelaySeconds
                        0x2000e259     0x1  Data  Lc  join.o [8]
joinFailed              0x0800c8a3    0x70  Code  Lc  join.o [8]
joinFinResponseHandler  0x0801791d    0x58  Code  Lc  commission.o [8]
joinFinalHandler        0x08017069    0x1a  Code  Lc  commission.o [8]
joinNetwork             0x0801ba2f    0x9a  Code  Lc  client-implementation.o [1]
joinStateNames          0x0800c91c    0x20  Data  Gb  join.o [8]
joinTimeoutEvent        0x2000e260     0xc  Data  Lc  join.o [8]
joinTimeoutEventActions
                        0x0802e7e4    0x10  Data  Lc  join.o [8]
joinTimeoutEventHandler
                        0x0800c3e1    0xca  Code  Lc  join.o [8]
joinTlsFlags            0x2000e2ba     0x2  Data  Lc  dtls-join.o [8]
jpakeClientHelloTailHead
                        0x08029b24    0x18  Data  Lc  tls-handshake.o [8]
jpakeServerHelloTailHead
                        0x08029fe0     0xc  Data  Lc  tls-handshake.o [8]
jpakeServerKeyExchangeTailHead
                        0x0802be2c     0x4  Data  Lc  tls-jpake.o [8]
jpakeSuiteIdentifier    0x0802fd48     0x2  Data  Gb  tls-ccm-record.o [8]
keepAliveHandler        0x0801700f    0x5a  Code  Lc  commission.o [8]
langID                  0x0802e618     0x4  Data  Lc  uart.o [1]
largeTlvLength          0x0801682d    0x10  Code  Lc  commission.o [8]
lastChildAgeTimeSeconds
                        0x2000fea8     0x4  Data  Lc  child-aging.o [8]
lastEventTimeMS         0x2000ff16     0x2  Data  Lc  mac-indirect.o [8]
lastEventTimeMs         0x2000f904     0x4  Data  Lc  global-prefix.o [8]
lastEventTimeQs         0x2000ffaa     0x2  Data  Lc  multicast.o [8]
lastTxSfdTime           0x2000f874     0x4  Data  Gb  phy-common.o [8]
lastVcoCalChannel       0x2000f8f6     0x1  Data  Lc  analogue-vco.o [8]
lastVcoValue            0x2000f8f7     0x1  Data  Lc  analogue-vco.o [8]
leaderData              0x2000f884     0x8  Data  Lc  network-data.o [8]
leaderLongId            0x2000f4d0     0x8  Data  Lc  dhcp.o [8]
leaderTimeoutEvent      0x2000e314     0xc  Data  Lc  network-fragmentation.o [8]
leaderTimeoutEventActions
                        0x0802ece0    0x10  Data  Lc  network-fragmentation.o [8]
leaderTimeoutEventHandler
                        0x0801d369    0x96  Code  Lc  network-fragmentation.o [8]
left                    0x2000ff09     0x1  Data  Lc  sim-eeprom-internal.o [7]
legacyBytes             0x08015284     0xc  Data  Lc  distributed-key-management.o [8]
lengthMemcopy           0x08010b67    0x24  Code  Lc  coap.o [8]
linkCost                0x0801b8f0    0x10  Data  Lc  rip-neighbor.o [8]
linkMargin              0x0801b087    0x10  Code  Lc  rip-neighbor.o [8]
linkMarginToQuality     0x0801b097    0x56  Code  Lc  rip-neighbor.o [8]
lnaForceReCal           0x2000ff00     0x2  Data  Gb  analogue.o [8]
logCommissionMessage    0x08017213    0x3e  Code  Lc  commission.o [8]
logDhcp                 0x080201a9    0x20  Code  Lc  dhcp.o [8]
logMle                  0x08012933    0xae  Code  Lc  mle.o [8]
lookupAddressData       0x080162c1    0x22  Code  Lc  address-cache.o [8]
macAuxFrameSize         0x08014dc8     0x4  Data  Lc  mle.o [8]
macAuxFrameSize         0x0800f2e0     0x4  Data  Lc  802-15-4-ccm.o [8]
macBufferStatus         0x2000f90a     0x1  Data  Lc  mac-arbiter.o [8]
macHeaderDataSizes      0x0800f2e4     0x4  Data  Lc  802-15-4-ccm.o [8]
macIndirectEvent        0x2000e3d4     0xc  Data  Lc  mac-indirect.o [8]
macIndirectEventActions
                        0x0802ef54    0x10  Data  Lc  mac-indirect.o [8]
macIndirectEventHandler
                        0x0800f5ab    0x36  Code  Lc  mac-indirect.o [8]
macTransmitEventActions
                        0x0802ef70    0x10  Data  Lc  mac.o [8]
macTransmitEventHandler
                        0x0800e537    0x86  Code  Lc  mac.o [8]
main                    0x08019549    0xc8  Code  Gb  main.o [1]
makeCommand             0x0801e3c1   0x114  Code  Lc  command.o [8]
makeMplOptionTunnelHeader
                        0x0802874d    0x50  Code  Lc  ip-header.o [8]
makeOptionTunnelHeader  0x08028695    0xa8  Code  Lc  ip-header.o [8]
managePollTxRxTurnaround
                        0x08005ca9    0x20  Code  Gb  phy-common.o [8]
markFunctions           0x2000ff0c     0x2  Data  Lc  mark-list.o [8]
markStackBuffers        0x0800a891   0x12c  Code  Lc  ip-stack.o [8]
markers                 0x0800ad6c     0x8  Data  Lc  ip-stack.o [8]
matchCryptoSuites       0x080295f3    0x8a  Code  Lc  tls-handshake.o [8]
matchEui64              0x0802b297    0x12  Code  Lc  dhcp-address-table.o [8]
matchInterfaceId        0x0802b26d    0x2a  Code  Lc  dhcp-address-table.o [8]
matchLongId             0x08016283    0x26  Code  Lc  address-cache.o [8]
matchShortId            0x080162a9    0x10  Code  Lc  address-cache.o [8]
matchingPoolAddress     0x0800f6f5    0x84  Code  Lc  mac-indirect.o [8]
maxScanTime             0x2000f6ec     0x4  Data  Lc  scan.o [8]
maybeSendMleMessage     0x08013cf9   0x408  Code  Lc  mle.o [8]
maybeUpdateRipMetric    0x080123e9    0xfe  Code  Lc  rip.o [8]
memchr                  0x0802c521          Code  Gb  memchr.o [6]
mergeNodeIdTlvs         0x08018c71    0xcc  Code  Lc  network-data.o [8]
meshLocalUlaPrefix      0x2000f8f8     0x8  Data  Lc  global-prefix.o [8]
messageIdPredicate      0x08010a0f    0x14  Code  Lc  coap.o [8]
mleAdvertisementEvent   0x2000e370     0xc  Data  Lc  rip.o [8]
mleAdvertisementEventActions
                        0x0802ee7c    0x10  Data  Lc  rip.o [8]
mleAdvertisementEventHandler
                        0x080122af    0x24  Code  Lc  rip.o [8]
mleChallengeEvent       0x2000e354     0xc  Data  Lc  mle.o [8]
mleChallengeEventActions
                        0x0802ee34    0x10  Data  Lc  mle.o [8]
mleChallengeEventHandler
                        0x08013c19    0x3c  Code  Lc  mle.o [8]
mleCommandNames         0x080129e0    0x3c  Data  Lc  mle.o [8]
modDacForceReCal        0x2000fefe     0x2  Data  Gb  analogue.o [8]
moveToNewLocation       0x08009bf5    0x4a  Code  Lc  buffer-management.o [8]
mpi_add_abs             0x08025081    0x9a  Code  Gb  bignum.o [8]
mpi_add_int             0x08025277    0x10  Code  Gb  bignum.o [8]
mpi_add_mpi             0x080251f7    0x2e  Code  Gb  bignum.o [8]
mpi_cmp_abs             0x08024f57    0x6c  Code  Gb  bignum.o [8]
mpi_cmp_int             0x0802504d    0x34  Code  Gb  bignum.o [8]
mpi_cmp_mpi             0x08024fc3    0x8a  Code  Gb  bignum.o [8]
mpi_copy                0x08024a07    0x4a  Code  Gb  bignum.o [8]
mpi_div_mpi             0x0802574d   0x2cc  Code  Gb  bignum.o [8]
mpi_fill_random         0x08025bbb    0x56  Code  Gb  bignum.o [8]
mpi_free                0x0802490d    0x26  Code  Gb  bignum.o [8]
mpi_gcd                 0x08025aa1    0xf2  Code  Gb  bignum.o [8]
mpi_get_bit             0x08024b8b    0x20  Code  Gb  bignum.o [8]
mpi_get_digit           0x08024c59    0x3e  Code  Lc  bignum.o [8]
mpi_grow                0x08024939    0x5e  Code  Gb  bignum.o [8]
mpi_init                0x080248ff     0xe  Code  Gb  bignum.o [8]
mpi_inv_mod             0x08025c11   0x250  Code  Gb  bignum.o [8]
mpi_lsb                 0x08024bf3    0x2e  Code  Gb  bignum.o [8]
mpi_lset                0x08024b29    0x4c  Code  Gb  bignum.o [8]
mpi_mark                0x08024933     0x6  Code  Gb  bignum.o [8]
mpi_mod_mpi             0x08025a3f    0x5c  Code  Gb  bignum.o [8]
mpi_msb                 0x08024c21    0x2c  Code  Gb  bignum.o [8]
mpi_mul_hlp             0x080252b7   0x38a  Code  Lc  bignum.o [8]
mpi_mul_int             0x08025733    0x1a  Code  Gb  bignum.o [8]
mpi_mul_mpi             0x08025641    0xf2  Code  Gb  bignum.o [8]
mpi_read_binary         0x08024da1    0x60  Code  Gb  bignum.o [8]
mpi_read_string         0x08024c97   0x104  Code  Gb  bignum.o [8]
mpi_safe_cond_assign    0x08024a51    0x62  Code  Gb  bignum.o [8]
mpi_safe_cond_swap      0x08024ab3    0x76  Code  Gb  bignum.o [8]
mpi_set_bit             0x08024bab    0x48  Code  Gb  bignum.o [8]
mpi_shift_l             0x08024e4f    0x8e  Code  Gb  bignum.o [8]
mpi_shift_r             0x08024edd    0x7a  Code  Gb  bignum.o [8]
mpi_shrink              0x08024997    0x68  Code  Gb  bignum.o [8]
mpi_size                0x08024c4d     0xc  Code  Gb  bignum.o [8]
mpi_sub_abs             0x08025167    0x90  Code  Gb  bignum.o [8]
mpi_sub_hlp             0x08025123    0x44  Code  Lc  bignum.o [8]
mpi_sub_int             0x08025287    0x10  Code  Gb  bignum.o [8]
mpi_sub_mpi             0x0802522b    0x30  Code  Gb  bignum.o [8]
mpi_write_binary        0x08024e07    0x48  Code  Gb  bignum.o [8]
mpuConfig               0x2000e1b0    0x40  Data  Lc  mpu.o [1]
mruHead                 0x2000e3bc     0x1  Data  Lc  address-cache.o [8]
mul_count               0x2000fef0     0x4  Data  Lc  ecp.o [8]
multicastEvent          0x2000e3fc     0xc  Data  Lc  multicast.o [8]
multicastEventActions   0x0802efa8    0x10  Data  Lc  multicast.o [8]
multicastEventHandler   0x08015c07    0x6e  Code  Lc  multicast.o [8]
multicastSequence       0x2000ffa6     0x1  Data  Lc  multicast.o [8]
nameStrings             0x0802807c    0xc0  Data  Lc  diagnostic.o [1]
ndigs                   0x0802ba64    0x28  Data  Lc  xstoul.o [3]
networkDataEvent        0x2000e2f0     0xc  Data  Lc  network-data.o [8]
networkDataEventActions
                        0x0802eca0    0x10  Data  Lc  network-data.o [8]
networkDataEventHandler
                        0x080182ff    0x1e  Code  Lc  network-data.o [8]
networkDataNextTlv      0x0801831d     0x8  Code  Lc  network-data.o [8]
networkFragmentJoinEvent
                        0x2000e320     0xc  Data  Lc  network-fragmentation.o [8]
networkFragmentJoinEventActions
                        0x0802ecf0    0x10  Data  Lc  network-fragmentation.o [8]
networkFragmentJoinEventHandler
                        0x0801d521    0x10  Code  Lc  network-fragmentation.o [8]
networkId               0x0801c188    0x10  Data  Lc  client-implementation.o [1]
networkManagementCommissionCommand
                        0x0802d203    0xbc  Code  Gb  network-management-cli.o [1]
networkManagementCommissioningStartCommand
                        0x0802d399    0x14  Code  Gb  network-management-cli.o [1]
networkManagementConfigureGatewayCommand
                        0x0802d435    0x58  Code  Gb  network-management-cli.o [1]
networkManagementFormCommand
                        0x0802d099    0x96  Code  Gb  network-management-cli.o [1]
networkManagementGetGlobalAddressesCommand
                        0x0802d48d    0x38  Code  Gb  network-management-cli.o [1]
networkManagementInfoCommand
                        0x0802cf8d    0xf8  Code  Gb  network-management-cli.o [1]
networkManagementJoinCommand
                        0x0802d12f    0xd4  Code  Gb  network-management-cli.o [1]
networkManagementJoinCommissionedCommand
                        0x0802d2c5    0x32  Code  Gb  network-management-cli.o [1]
networkManagementScanCommand
                        0x0802d3dd    0x4e  Code  Gb  network-management-cli.o [1]
networkManagementSetJoinKeyCommand
                        0x0802d357    0x42  Code  Gb  network-management-cli.o [1]
networkManagementSetJoiningModeCommand
                        0x0802d3ad    0x16  Code  Gb  network-management-cli.o [1]
networkManagementSetMasterKeyCommand
                        0x0802d305    0x42  Code  Gb  network-management-cli.o [1]
networkManagementSteeringAddCommand
                        0x0802d3c9    0x14  Code  Gb  network-management-cli.o [1]
networkManagementTable  0x0802e2bc   0x110  Data  Lc  thread-cli.o [1]
networkParametersFields
                        0x0800c598    0x2c  Data  Lc  join.o [8]
networkStatus           0x2000ff05     0x1  Data  Lc  ip-stack.o [8]
networkUpdateEvent      0x2000e2a8     0xc  Data  Lc  local-server-data.o [8]
networkUpdateEventActions
                        0x0802eb84    0x10  Data  Lc  local-server-data.o [8]
networkUpdateEventHandler
                        0x080276f7    0x96  Code  Lc  local-server-data.o [8]
newRipEntry             0x0801aae5    0x34  Code  Lc  rip-neighbor.o [8]
nextAttachState         0x0800d5dd   0x12c  Code  Lc  join.o [8]
nextBuffer              0x08009aaf    0x26  Code  Lc  buffer-management.o [8]
nextChannel             0x2000f6d5     0x1  Data  Lc  scan.o [8]
nextDatagramTag         0x2000ff9e     0x2  Data  Lc  fragment.o [8]
nextFileIndex           0x2000f3c0     0x4  Data  Lc  tftp-bootloader-server.o [1]
nextId                  0x2000fe89     0x1  Data  Lc  rip-neighbor.o [8]
nextIncomingRssiIndex   0x2000f6dc     0x1  Data  Lc  scan.o [8]
nextJoinState           0x0800c981    0xee  Code  Lc  join.o [8]
nextMessageId           0x2000e278     0x2  Data  Lc  coap.o [8]
nextOffset              0x2000ffa0     0x2  Data  Lc  fragment.o [8]
nextOutgoingRssiIndex   0x2000f6db     0x1  Data  Lc  scan.o [8]
nextSessionId           0x2000f5ec     0x2  Data  Lc  commission.o [8]
nextToken               0x2000e27a     0x2  Data  Lc  coap.o [8]
nextTransactionId       0x2000f4cc     0x1  Data  Lc  dhcp.o [8]
nodeTypeNames           0x0800ab1c    0x20  Data  Lc  ip-stack.o [8]
normalOrBoostTokSerialRegId
                        0x08005590     0xc  Data  Gb  analogue-cell-bias.o [8]
noteAddressChange       0x08015d33    0x32  Code  Lc  global-prefix.o [8]
noteMleSender           0x0801b4b9   0x12a  Code  Lc  rip-neighbor.o [8]
noteUse                 0x08009ae9    0x80  Code  Lc  buffer-management.o [8]
nullEui                 0x080055fc     0x8  Data  Lc  mfg-token.o [1]
officialRandomness      0x080261ac   0x100  Data  Lc  sha256.o [8]
optionIds               0x08021464     0xc  Data  Lc  dhcp.o [8]
optionsCache            0x2000f472     0x2  Data  Lc  join.o [8]
originalChannel         0x2000f6d9     0x1  Data  Lc  scan.o [8]
originalPanId           0x2000f6de     0x2  Data  Lc  scan.o [8]
originalRadioIdleMode   0x2000f6da     0x1  Data  Lc  scan.o [8]
ourCookie               0x0802a9d4     0x8  Data  Lc  tls-handshake.o [8]
paPresent               0x2000ffbf     0x1  Data  Lc  analogue.o [8]
parametersCache         0x2000f418    0x50  Data  Lc  join.o [8]
parentChallenge         0x2000f488    0x10  Data  Lc  join.o [8]
parentChallengeLength   0x2000e258     0x1  Data  Lc  join.o [8]
parentTransmitFailedCounter
                        0x2000f718     0x1  Data  Lc  dispatch.o [8]
parseDhcpMessage        0x08020d71   0x12e  Code  Lc  dhcp.o [8]
parseDuid               0x080212ad    0x62  Code  Lc  dhcp.o [8]
parseMleMessage         0x080147b9   0x44e  Code  Lc  mle.o [8]
parseOptions            0x08020eb9   0x3e6  Code  Lc  dhcp.o [8]
pendingJoin             0x2000f918     0x2  Data  Lc  mle.o [8]
pendingJoinEvent        0x2000e33c     0xc  Data  Lc  mle.o [8]
pendingJoinEventActions
                        0x0802ee24    0x10  Data  Lc  mle.o [8]
pendingJoinEventHandler
                        0x0801287d    0x46  Code  Lc  mle.o [8]
pendingJoinMarker       0x08012877     0x6  Code  Lc  mle.o [8]
petitionHandler         0x08016d99    0xca  Code  Lc  commission.o [8]
petitionResponseHandler
                        0x08017be1    0xc2  Code  Lc  commission.o [8]
phyToMacQueue           0x2000f722     0x2  Data  Lc  buffer-management.o [8]
pickRandomKey           0x08014ff9    0x26  Code  Gb  distributed-key-management.o [8]
polarssl_zeroize        0x080248f5     0xa  Code  Lc  bignum.o [8]
pollEvent               0x2000e26c     0xc  Data  Lc  join.o [8]
pollEvent               0x2000e390     0xc  Data  Lc  child-aging.o [8]
pollEventActions        0x0802e7f4    0x10  Data  Lc  join.o [8]
pollEventActions        0x0802eef0    0x10  Data  Lc  child-aging.o [8]
pollEventHandler        0x0800c4ab    0x38  Code  Lc  join.o [8]
pollEventHandler        0x08018e41    0x74  Code  Lc  child-aging.o [8]
pollState               0x2000f90b     0x1  Data  Lc  mac-arbiter.o [8]
polys                   0x08016764     0x4  Data  Lc  commission.o [8]
portCache               0x2000f474     0x2  Data  Lc  join.o [8]
portMasks               0x2000f744     0xc  Data  Lc  log.o [8]
powerLevelSettings      0x08004b10     0x4  Data  Gb  analogue.o [8]
powers10                0x080098a8    0x24  Data  Lc  serial-printf.o [1]
precommissioned         0x2000f46e     0x1  Data  Lc  join.o [8]
preferredCryptoSuite    0x080295a9    0x4a  Code  Lc  tls-handshake.o [8]
prefixAgingEvent        0x2000e32c     0xc  Data  Lc  global-prefix.o [8]
prefixAgingEventActions
                        0x0802ed10    0x10  Data  Lc  global-prefix.o [8]
prefixAgingEventHandler
                        0x08015daf   0x120  Code  Lc  global-prefix.o [8]
previousHandle          0x2000ffa2     0x1  Data  Lc  udp.o [8]
previousLoValue         0x2000e296     0x1  Data  Gb  clocks.o [4]
previousTemperature     0x2000ffd5     0x1  Data  Lc  phy.o [8]
previousTemperatureAvailable
                        0x2000ffd6     0x1  Data  Lc  phy.o [8]
prfHash                 0x0802be31    0xd4  Code  Lc  tls-handshake-crypto.o [8]
printBuffer             0x08028a7b    0x4e  Code  Lc  debug-print.o [1]
printCommandUsage       0x0802c175    0x86  Code  Lc  command-interpreter2-error.o [1]
printCommissionMessage  0x08016963    0x5c  Code  Lc  commission.o [8]
printVarArg             0x08028a35    0x26  Code  Lc  debug-print.o [1]
priorityTransmitQueue   0x2000f90e     0x2  Data  Lc  mac-arbiter.o [8]
processAddressReleaseAck
                        0x08026a99    0x18  Code  Lc  address-management.o [8]
processAddressSolicitAck
                        0x080269e7    0xa2  Code  Lc  address-management.o [8]
processCertificateRequest
                        0x0802a23b    0x44  Code  Lc  tls-handshake.o [8]
processChangeResponse   0x080276c3    0x12  Code  Lc  local-server-data.o [8]
processClientHello      0x08029b3d   0x17a  Code  Lc  tls-handshake.o [8]
processClientKeyExchange
                        0x0802a3fb    0x8c  Code  Lc  tls-handshake.o [8]
processClosingData      0x0802a4ff     0x4  Code  Lc  tls-handshake.o [8]
processFinished         0x0802a48f    0x70  Code  Lc  tls-handshake.o [8]
processForMe            0x08019efd    0xe6  Code  Lc  dispatch.o [8]
processForUart          0x08019abd    0xb0  Code  Lc  dispatch.o [8]
processHelloDone        0x0802a27f    0x24  Code  Lc  tls-handshake.o [8]
processHelloRequest     0x08029709    0x14  Code  Lc  tls-handshake.o [8]
processIcmpMessage      0x0801a021   0x106  Code  Lc  dispatch.o [8]
processIncomingData     0x0801970d   0x31c  Code  Lc  dispatch.o [8]
processJPakeHello       0x08029a95    0x76  Code  Lc  tls-handshake.o [8]
processLeaseQuery       0x08020697   0x108  Code  Lc  dhcp.o [8]
processRecord           0x0802a50f   0x128  Code  Lc  tls-handshake.o [8]
processRelease          0x08020bdf    0x4c  Code  Lc  dhcp.o [8]
processReply            0x0802097f   0x1c0  Code  Lc  dhcp.o [8]
processResponse         0x0802c645     0x2  Code  Lc  coap-cli.o [1]
processRxAddressReceiveCompleteIsr
                        0x080057c5   0x13a  Code  Lc  phy.o [8]
processRxPacketCompleteIsr
                        0x080058ff    0xdc  Code  Lc  phy.o [8]
processServerDataAck    0x0801bcb1    0x44  Code  Lc  client-implementation.o [1]
processServerHello      0x0802a093   0x182  Code  Lc  tls-handshake.o [8]
processServerKeyExchange
                        0x0802a21d    0x1e  Code  Lc  tls-handshake.o [8]
processSolicit          0x080207ad   0x1ae  Code  Lc  dhcp.o [8]
pskClientHelloTail      0x08029888     0x2  Data  Lc  tls-handshake.o [8]
pskSuiteIdentifier      0x0802fd42     0x2  Data  Gb  tls-ccm-record.o [8]
ptiEnabled              0x2000e2e2     0x1  Data  Lc  phy-common.o [8]
ptrCache                0x2000f374    0x38  Data  Gb  sim-eeprom.o [1]
ptrCacheLoc             0x0800784b    0x22  Code  Lc  sim-eeprom-internal.o [7]
purgeNextHop            0x0801ac05    0x3e  Code  Gb  rip-neighbor.o [8]
putBytes                0x08007009    0x46  Code  Lc  debug.o [8]
radioCheckCrc           0x2000e2e0     0x1  Data  Gb  phy-common.o [8]
radioCurrentPowerStatus
                        0x2000e2e8     0x1  Data  Gb  phy-common.o [8]
radioIdlePowerState     0x2000e2e6     0x1  Data  Lc  phy-common.o [8]
radioTransmitConfig     0x2000e280     0x8  Data  Gb  ip-stack.o [8]
rand                    0x0802c441    0xe0  Code  Gb  rand.o [3]
rand_bytes              0x08011e81    0x48  Code  Lc  jpake-ecc-mbedtls.o [8]
reCalibrateVref         0x2000ffc0     0x1  Data  Gb  analogue.o [8]
readCounterValue        0x080080e1    0x34  Code  Lc  sim-eeprom-internal.o [7]
readString              0x08028c81    0x1a  Code  Lc  tftp-server.o [1]
readTokenData           0x080077c9    0x42  Code  Lc  sim-eeprom-internal.o [7]
readUdpPort             0x0801c9a9    0x20  Code  Lc  6lowpan-header.o [8]
reallyProcessIpMessage  0x08019bdf   0x2ee  Code  Lc  dispatch.o [8]
recalculateMacDataPendingBitField
                        0x0800f783    0x24  Code  Lc  mac-indirect.o [8]
reenqueueSubmitHead     0x0800f9cb    0x60  Code  Lc  retry.o [8]
relayRxHandler          0x08016ef1    0x7e  Code  Lc  commission.o [8]
relayTxHandler          0x08016f6f    0xa0  Code  Lc  commission.o [8]
releaseId               0x2000ffe2     0x1  Data  Lc  router-selection.o [8]
remainingRejoinAttempts
                        0x2000f46d     0x1  Data  Lc  join.o [8]
remainingScanAttempts   0x2000f46a     0x1  Data  Lc  join.o [8]
removeHopByHopExtensionHeader
                        0x0801a647    0x46  Code  Lc  dispatch.o [8]
reportCommand           0x0801bd99     0xe  Code  Gb  client-implementation.o [1]
reportDataToServer      0x0801bcf5    0x9e  Code  Lc  client-implementation.o [1]
requestFailed           0x08020b49    0x96  Code  Lc  dhcp.o [8]
resendFlight            0x0801fd35    0x30  Code  Lc  dtls.o [8]
resetNetworkRetries     0x2000f4c8     0x4  Data  Lc  ip-stack.o [8]
resetNetworkState       0x0800b03f    0x8e  Code  Lc  ip-stack.o [8]
resetNetworkStateEvent  0x2000e288     0xc  Data  Lc  ip-stack.o [8]
resetNetworkStateEventActions
                        0x0802ea88    0x10  Data  Lc  ip-stack.o [8]
resetNetworkStateEventHandler
                        0x0800b0d7    0x4c  Code  Lc  ip-stack.o [8]
responseMap             0x08011450    0xd0  Data  Lc  coap.o [8]
restartAttach           0x0800d4b5    0x16  Code  Lc  join.o [8]
retryEntries            0x2000f934    0x40  Data  Lc  retry.o [8]
retryEvent              0x2000e360     0xc  Data  Lc  retry.o [8]
retryEventActions       0x08021454    0x10  Data  Lc  dhcp.o [8]
retryEventActions       0x0802ee4c    0x10  Data  Lc  retry.o [8]
retryEventHandler       0x08010adb    0x4c  Code  Lc  coap.o [8]
retryEventHandler       0x08020c2b    0x4a  Code  Lc  dhcp.o [8]
retryEventHandler       0x0800fa2b    0x84  Code  Lc  retry.o [8]
retryEventMarker        0x08010a09     0x6  Code  Lc  coap.o [8]
retryEventMarker        0x08020c75     0x6  Code  Lc  dhcp.o [8]
retryEventPredicate     0x0802096f    0x10  Code  Lc  dhcp.o [8]
retryEventPredicate     0x0801ec0b    0x26  Code  Lc  coap-soc.o [8]
reverseMemCopy          0x0800ee79    0x1a  Code  Lc  802-15-4-ccm.o [8]
rhoActive               0x2000ffd7     0x1  Data  Lc  phy.o [8]
ripAgeEvent             0x2000e37c     0xc  Data  Lc  rip.o [8]
ripAgeEventActions      0x0802ee8c    0x10  Data  Lc  rip.o [8]
ripAgeEventHandler      0x080122d3    0xac  Code  Lc  rip.o [8]
ripUpdateNextHop        0x0801a68d   0x2b4  Code  Lc  dispatch.o [8]
rmwRadioPowerCfgReg     0x080065e9    0x44  Code  Lc  micro.o [1]
rmwRadioPowerOutReg     0x0800662d    0x3e  Code  Lc  micro.o [1]
routerSelectionEvent    0x2000e3b0     0xc  Data  Lc  router-selection.o [8]
routerSelectionEventActions
                        0x0802ef24    0x10  Data  Lc  router-selection.o [8]
routerSelectionEventHandler
                        0x0801ee1d   0x168  Code  Lc  router-selection.o [8]
rssiCache               0x2000f468     0x1  Data  Lc  join.o [8]
rxBuffer                0x2000f4d8   0x100  Data  Lc  debug-jtag.o [8]
rxBuffer                0x2000f758   0x114  Data  Lc  phy.o [8]
sampleVcoTune           0x08006969    0x46  Code  Gb  analogue-mod-dac.o [8]
savedAssertInfo         0x2000ed20     0x8  Data  Lc  cstartup-common.o [1]
savedControl            0x2000f700          Data  Gb  context-switch.o [4]
savedMSP                0x2000f6f8          Data  Gb  context-switch.o [4]
savedPSP                0x2000f6fc          Data  Gb  context-switch.o [4]
savedPeripheralReg      0x2000ee28     0x4  Data  Gb  em_usbhal.o [1]
savedResetCause         0x2000ed28     0x2  Data  Lc  cstartup-common.o [1]
savedScanType           0x2000f6d6     0x1  Data  Lc  scan.o [8]
scanChannelMask         0x2000f6f0     0x4  Data  Lc  scan.o [8]
scanDuration            0x2000f6d7     0x1  Data  Lc  scan.o [8]
scanEventActions        0x0802eb9c    0x10  Data  Lc  scan.o [8]
scanEventHandler        0x0801d991   0x10c  Code  Lc  scan.o [8]
scanFrameCounter        0x2000f6e4     0x4  Data  Lc  scan.o [8]
scanReturn              0x0801d965    0x2c  Code  Lc  scan.o [8]
scanStartTime           0x2000f6e8     0x4  Data  Lc  scan.o [8]
scanTable               0x0802e24c    0x40  Data  Lc  thread-cli.o [1]
scanTransmitRetries     0x2000f6d8     0x1  Data  Lc  scan.o [8]
scheduleEvent           0x08015cef    0x3c  Code  Lc  global-prefix.o [8]
scheduleEvent           0x08018ee3    0x42  Code  Lc  child-aging.o [8]
secondsSinceLastPollResponse
                        0x2000fea4     0x4  Data  Lc  child-aging.o [8]
secp192k1_a             0x0802f3d8     0x4  Data  Lc  ecp_curves.o [8]
secp192k1_b             0x0802f3dc     0x4  Data  Lc  ecp_curves.o [8]
secp192k1_gx            0x0802f3e0    0x18  Data  Lc  ecp_curves.o [8]
secp192k1_gy            0x0802f3f8    0x18  Data  Lc  ecp_curves.o [8]
secp192k1_n             0x0802f410    0x18  Data  Lc  ecp_curves.o [8]
secp192k1_p             0x0802f3c0    0x18  Data  Lc  ecp_curves.o [8]
secp192r1_b             0x0802f024    0x18  Data  Lc  ecp_curves.o [8]
secp192r1_gx            0x080247d8    0x18  Data  Lc  ecp_curves.o [8]
secp192r1_gy            0x0802f03c    0x18  Data  Lc  ecp_curves.o [8]
secp192r1_n             0x0802f054    0x18  Data  Lc  ecp_curves.o [8]
secp192r1_p             0x080247f0    0x18  Data  Lc  ecp_curves.o [8]
secp224k1_a             0x0802f444     0x4  Data  Lc  ecp_curves.o [8]
secp224k1_b             0x0802f448     0x4  Data  Lc  ecp_curves.o [8]
secp224k1_gx            0x0802f44c    0x1c  Data  Lc  ecp_curves.o [8]
secp224k1_gy            0x0802f468    0x1c  Data  Lc  ecp_curves.o [8]
secp224k1_n             0x0802f484    0x20  Data  Lc  ecp_curves.o [8]
secp224k1_p             0x0802f428    0x1c  Data  Lc  ecp_curves.o [8]
secp224r1_b             0x0802f06c    0x1c  Data  Lc  ecp_curves.o [8]
secp224r1_gx            0x0802f088    0x1c  Data  Lc  ecp_curves.o [8]
secp224r1_gy            0x0802f0a4    0x1c  Data  Lc  ecp_curves.o [8]
secp224r1_n             0x0802f0c0    0x1c  Data  Lc  ecp_curves.o [8]
secp224r1_p             0x0802481c    0x20  Data  Lc  ecp_curves.o [8]
secp256k1_a             0x0802f4c4     0x4  Data  Lc  ecp_curves.o [8]
secp256k1_b             0x0802f4c8     0x4  Data  Lc  ecp_curves.o [8]
secp256k1_gx            0x0802f4cc    0x20  Data  Lc  ecp_curves.o [8]
secp256k1_gy            0x0802f4ec    0x20  Data  Lc  ecp_curves.o [8]
secp256k1_n             0x0802f50c    0x20  Data  Lc  ecp_curves.o [8]
secp256k1_p             0x0802f4a4    0x20  Data  Lc  ecp_curves.o [8]
secp256r1_b             0x0802f0fc    0x20  Data  Lc  ecp_curves.o [8]
secp256r1_gx            0x0802f11c    0x20  Data  Lc  ecp_curves.o [8]
secp256r1_gy            0x0802f13c    0x20  Data  Lc  ecp_curves.o [8]
secp256r1_n             0x0802f15c    0x20  Data  Lc  ecp_curves.o [8]
secp256r1_p             0x0802f0dc    0x20  Data  Lc  ecp_curves.o [8]
secp384r1_b             0x0802f1ac    0x30  Data  Lc  ecp_curves.o [8]
secp384r1_gx            0x0802f1dc    0x30  Data  Lc  ecp_curves.o [8]
secp384r1_gy            0x0802f20c    0x30  Data  Lc  ecp_curves.o [8]
secp384r1_n             0x0802f23c    0x30  Data  Lc  ecp_curves.o [8]
secp384r1_p             0x0802f17c    0x30  Data  Lc  ecp_curves.o [8]
secp521r1_b             0x0802f2b0    0x44  Data  Lc  ecp_curves.o [8]
secp521r1_gx            0x0802f2f4    0x44  Data  Lc  ecp_curves.o [8]
secp521r1_gy            0x0802f338    0x44  Data  Lc  ecp_curves.o [8]
secp521r1_n             0x0802f37c    0x44  Data  Lc  ecp_curves.o [8]
secp521r1_p             0x0802f26c    0x44  Data  Lc  ecp_curves.o [8]
seed0                   0x2000e1f0     0x2  Data  Gb  random.o [1]
seed1                   0x2000e1f2     0x2  Data  Gb  random.o [1]
sendAccept              0x08013a39   0x1aa  Code  Lc  mle.o [8]
sendChangeCipherSpec    0x0802a37f    0x2a  Code  Lc  tls-handshake.o [8]
sendClientHelloHandler  0x08029767   0x11e  Code  Lc  tls-handshake.o [8]
sendClientKeyExchange   0x0802a2a3    0xd2  Code  Lc  tls-handshake.o [8]
sendCommissionerStatus  0x08016a47    0xb2  Code  Lc  commission.o [8]
sendDhcpAddressRequest  0x08020501    0xca  Code  Lc  dhcp.o [8]
sendDhcpMessage         0x08020c7b    0xd8  Code  Lc  dhcp.o [8]
sendDtlsRecords         0x0801fc29    0x5a  Code  Lc  dtls.o [8]
sendFinished            0x0802a3a9    0x52  Code  Lc  tls-handshake.o [8]
sendHelloRequest        0x080296e7    0x22  Code  Lc  tls-handshake.o [8]
sendKeepalive           0x08017b91    0x40  Code  Lc  commission.o [8]
sendMleReject           0x0801474f    0x48  Code  Lc  mle.o [8]
sendOkayToSend          0x08028ed3    0x66  Code  Lc  tftp-bootloader-server.o [1]
sendOneHopMleMessage    0x08013cd9    0x20  Code  Lc  mle.o [8]
sendOutput              0x0800942f    0xca  Code  Lc  debug-jtag.o [8]
sendRecord              0x0802ac07   0x11e  Code  Lc  tls-ccm-record.o [8]
sendResponse            0x08011097    0x50  Code  Lc  coap.o [8]
sendServerHello         0x08029edf   0x102  Code  Lc  tls-handshake.o [8]
sendServerHelloDone     0x0802a051    0x2a  Code  Lc  tls-handshake.o [8]
sendServerKeyExchange   0x0802a02b    0x18  Code  Lc  tls-handshake.o [8]
sendToLeaderWithHandlerData
                        0x080173d5    0x6e  Code  Lc  commission.o [8]
sequenceNumber          0x2000ffce     0x1  Data  Lc  debug-jtag.o [8]
serialRegData           0x2000f3e0    0x24  Data  Gb  analogue.o [8]
server                  0x2000ec8c    0x10  Data  Lc  client-implementation.o [1]
serverAdvertiseUri      0x0801c1a8    0x14  Data  Lc  client-implementation.o [1]
serverIdentity          0x08011ee4     0x8  Data  Gb  jpake-ecc-mbedtls.o [8]
serverKey               0x2000f604    0x10  Data  Lc  dtls-join.o [8]
serverKeyLength         0x2000f602     0x1  Data  Lc  dtls-join.o [8]
servicesState           0x2000f5f4     0x1  Data  Lc  local-server-data.o [8]
sessionId               0x2000f5ee     0x2  Data  Lc  commission.o [8]
setAttachState          0x0800d4cb    0x24  Code  Lc  join.o [8]
setDestinationMode      0x0800c197    0x24  Code  Lc  ip-packet-header.o [8]
setJoinState            0x0800c85f    0x24  Code  Lc  join.o [8]
setLifetime             0x08015ffd    0x2e  Code  Lc  global-prefix.o [8]
setMleAdvertisementDelay
                        0x080121ef    0x4e  Code  Lc  rip.o [8]
setNewOrRestoreOldGenerator
                        0x08011dc3    0x9a  Code  Lc  jpake-ecc-mbedtls.o [8]
setNextStateWithDelay   0x0801bedd     0xa  Code  Lc  client-implementation.o [1]
setPendingIndirectFlag  0x0800f37b    0x4c  Code  Lc  mac-indirect.o [8]
setTxStepTime           0x08004587    0x38  Code  Lc  analogue.o [8]
setUnreachabilityTimer  0x08012269    0x14  Code  Lc  rip.o [8]
setUpNextNoteOrStop     0x0802c5b3    0x5a  Code  Lc  buzzer.o [1]
setupNextJoinState      0x0800cf11    0x38  Code  Lc  join.o [8]
sharedKey               0x0802f890    0x10  Data  Gb  tls-test-credentials.o [8]
sharedKeyName           0x0802f88c     0x1  Data  Gb  tls-test-credentials.o [8]
shift                   0x0800879d    0x10  Code  Lc  random.o [1]
simEe2offset            0x2000f6f4     0x4  Data  Gb  sim-eeprom-internal.o [7]
simEeErasePage          0x08007813    0x16  Code  Lc  sim-eeprom-internal.o [7]
simEeSetDataActiveSemaphore
                        0x2000ffbd     0x1  Data  Gb  token.o [1]
simulatedEepromStorage  0x0807e000  0x2000  Data  Gb  sim-eeprom.o [1]
sizeCache               0x0802dfec     0xc  Data  Gb  sim-eeprom.o [1]
skipOverNotLive         0x08009c3f    0x16  Code  Lc  buffer-management.o [8]
sleepTimerInterruptOccurred
                        0x2000ffc6     0x1  Data  Gb  system-timer.o [4]
sleepyBroadcastEvent    0x2000e40c     0xc  Data  Lc  jit.o [8]
sleepyBroadcastEventActions
                        0x0802efcc    0x10  Data  Lc  jit.o [8]
sleepyBroadcastEventHandler
                        0x0801f155    0x30  Code  Lc  jit.o [8]
socCoapMessageHandler   0x0801ec57    0x2c  Code  Lc  coap-soc.o [8]
sortTlvs                0x08018929    0x62  Code  Lc  network-data.o [8]
spreadModDac1           0x2000ff0e     0x2  Data  Gb  analogue-mod-dac.o [8]
spreadModDac2           0x2000ff10     0x2  Data  Gb  analogue-mod-dac.o [8]
stackEvents             0x0800b480     0x8  Data  Lc  ip-stack.o [8]
startAttach             0x0800d4a3    0x12  Code  Lc  join.o [8]
startChannelScan        0x0801db49    0x80  Code  Lc  scan.o [8]
startDiscovery          0x080164bf    0x3c  Code  Lc  address-cache.o [8]
startFormActiveScan     0x0800d2a7    0x38  Code  Lc  join.o [8]
startFragmentIfJoinFails
                        0x2000f46f     0x1  Data  Lc  join.o [8]
startHostJoinClient     0x2000f484     0x4  Data  Lc  join.o [8]
startJoin               0x0800c72b    0x54  Code  Lc  join.o [8]
startMessageTimeout     0x0801fbf5    0x2a  Code  Gb  dtls.o [8]
startNextConversion     0x080041f9    0x5e  Code  Gb  adc.o [1]
state                   0x2000ec81     0x1  Data  Lc  client-implementation.o [1]
stateActions            0x0802a9dc   0x168  Data  Lc  tls-handshake.o [8]
stateChange             0x0802d93f    0x1c  Code  Gb  callbacks.o [1]
stateEventControl       0x2000ec84     0x8  Data  Gb  client-implementation.o [1]
stateEventHandler       0x0801be55    0x80  Code  Gb  client-implementation.o [1]
statsTable              0x2000f40c     0xc  Data  Lc  debug.o [8]
statusReports           0x0801fbec     0x8  Data  Lc  connection.o [8]
steeringData            0x2000f5dc    0x10  Data  Lc  commission.o [8]
steeringDataHandler     0x08016e6b    0x4a  Code  Lc  commission.o [8]
steeringDataLength      0x2000f5d8     0x1  Data  Lc  commission.o [8]
steeringDataOp          0x080166b1    0xb2  Code  Lc  commission.o [8]
steeringTable           0x0802e28c    0x30  Data  Lc  thread-cli.o [1]
storeMulticastOption    0x08028313    0x3a  Code  Lc  ip-header.o [8]
storeOptionAndLength    0x08010b8b    0x7a  Code  Lc  coap.o [8]
stringToIp              0x08021717   0x116  Code  Lc  command-interpreter2-util.o [1]
strings                 0x0802e690    0x10  Data  Lc  uart.o [1]
strlen                  0x08027205          Code  Gb  strlen.o [6]
strncmp                 0x0802723b    0x2a  Code  Gb  strncmp.o [3]
sub32                   0x08023e57    0x18  Code  Lc  ecp_curves.o [8]
submitCount             0x2000f975     0x1  Data  Lc  retry.o [8]
submitMessage           0x0801e8fd    0x4e  Code  Lc  coap-soc.o [8]
successTlv              0x08017088     0x4  Data  Lc  commission.o [8]
tcpStatusNames          0x0801fbc4    0x28  Data  Gb  connection.o [8]
theKeyData              0x2000f624    0xb0  Data  Lc  distributed-key-management.o [8]
theSharedKey            0x0802f8a0    0x10  Data  Lc  tls-test-credentials.o [8]
ticksPr100us            0x2000ee3c     0x4  Data  Lc  em_usbtimer.o [1]
ticksPr10us             0x2000ee38     0x4  Data  Lc  em_usbtimer.o [1]
ticksPr1us              0x2000ee34     0x4  Data  Lc  em_usbtimer.o [1]
ticksPrMs               0x2000ee30     0x4  Data  Lc  em_usbtimer.o [1]
timeoutPools            0x0800f7a7    0xb2  Code  Lc  mac-indirect.o [8]
tlsHandshakeName        0x0802b0a5     0xe  Code  Gb  tls-debug.o [8]
tlsHandshakeNames       0x0802b0c4    0x54  Data  Lc  tls-debug.o [8]
tlsStateName            0x0802b0b9     0x4  Code  Gb  tls-debug.o [8]
tlsStateNames           0x0802b118    0x80  Data  Lc  tls-debug.o [8]
tlvBit                  0x080128f7    0x14  Code  Lc  mle.o [8]
tlvData                 0x080165c0    0xf0  Data  Lc  commission.o [8]
tlvData                 0x08026f78    0x40  Data  Lc  address-management.o [8]
tlvRanges               0x080165b8     0x8  Data  Lc  commission.o [8]
tlvRequested            0x0801291f    0x14  Code  Lc  mle.o [8]
tokenArraySize          0x0802e504     0xc  Data  Gb  token-def.o [1]
tokenCreators           0x0802e4d4    0x18  Data  Gb  token-def.o [1]
tokenDefaults           0x0802e594    0x2c  Data  Gb  token-def.o [1]
tokenIsCnt              0x0802e4ec     0xc  Data  Gb  token-def.o [1]
tokenPredicate          0x08010a23    0x14  Code  Lc  coap.o [8]
tokenSize               0x0802e4f8     0xc  Data  Gb  token-def.o [1]
tokensActive            0x2000ffbc     0x1  Data  Gb  token.o [1]
tracePhase              0x2000f720     0x1  Data  Lc  buffer-management.o [8]
transmitComplete        0x0801a3f1    0xda  Code  Lc  dispatch.o [8]
transmitQueue           0x2000f910     0x2  Data  Lc  mac-arbiter.o [8]
trickleExponent         0x2000e36c     0x1  Data  Lc  rip.o [8]
tuneDone                0x2000e0e8     0x1  Data  Gb  buzzer.o [1]
tunePos                 0x2000ec78     0x1  Data  Gb  buzzer.o [1]
txBuffer                0x2000f408     0x4  Data  Lc  debug.o [8]
txBufferLength          0x2000f406     0x1  Data  Lc  debug.o [8]
txBufferSize            0x2000f405     0x1  Data  Lc  debug.o [8]
txHeaderLength          0x0802ab83    0x14  Code  Lc  tls-ccm-record.o [8]
txPower                 0x08004ac4    0x28  Data  Gb  analogue.o [8]
txStepTimeSnapshot      0x2000f872     0x2  Data  Lc  phy-common.o [8]
typeAndPortEnabled      0x0800b489    0x16  Code  Lc  log.o [8]
typeMap                 0x08011520    0x20  Data  Lc  coap.o [8]
uartErrorMark           0x08009127    0x3c  Code  Lc  uart.o [1]
udpListenCommand        0x0802d5e9    0x34  Code  Gb  udp-cli.o [1]
udpSendCommand          0x0802d61d    0x68  Code  Gb  udp-cli.o [1]
udpStatusHandler        0x0801dca3    0x20  Code  Lc  dtls-join.o [8]
udpTable                0x0802e3cc    0x30  Data  Lc  thread-cli.o [1]
unicastHead             0x2000fed0     0x1  Data  Lc  unicast-table.o [8]
unicastTableEvent       0x2000e418     0xc  Data  Lc  unicast-table.o [8]
unicastTableEventActions
                        0x0802efec    0x10  Data  Lc  unicast-table.o [8]
unicastTableEventHandler
                        0x080152e5    0x2a  Code  Lc  unicast-table.o [8]
updateTables            0x08014c1f    0x7a  Code  Lc  mle.o [8]
uriHandlers             0x080172e0    0x54  Data  Lc  commission.o [8]
uriHandlers             0x08026fb8    0x48  Data  Lc  address-management.o [8]
usbBufferA              0x2000e4f0   0x570  Data  Gb  em_usbhal.o [1]
usbForceTxData          0x0800ec19    0x28  Code  Gb  em_usbd.o [1]
usbTxData               0x0800ebf5    0x24  Code  Gb  em_usbd.o [1]
usbVbusPresent          0x2000ffb6     0x1  Data  Gb  em_usbhal.o [1]
useOsc32k               0x2000ffb9     0x1  Data  Gb  micro-common.o [1]
useXtalAsIs             0x2000ffcc     0x1  Data  Lc  clocks.o [4]
useXtalSysTickIsr       0x2000ffc9     0x1  Data  Gb  clocks.o [4]
userData                0x2000f738     0x4  Data  Lc  buffer-management.o [8]
userDataCount           0x2000f726     0x2  Data  Lc  buffer-management.o [8]
vbusMonCfg              0x0801f3f5    0x40  Code  Gb  em_usbhal.o [1]
vcoLastTuneValueAvailable
                        0x2000f8f5     0x1  Data  Gb  analogue-vco.o [8]
vcoTuneModDacError      0x080069af    0x24  Code  Lc  analogue-mod-dac.o [8]
verifyAppBlVersion      0x0802bb21    0x1c  Code  Lc  bootloader-interface-app.o [1]
verifyFib               0x0800a67d    0x24  Code  Lc  flash.o [4]
verifyLocalServerData   0x080275cb    0xbe  Code  Lc  local-server-data.o [8]
verifyNonExistentAddress
                        0x08012ac7    0xa8  Code  Gb  mle.o [8]
verifyZeroKnowledgeProof
                        0x08011cff    0xbc  Code  Lc  jpake-ecc-mbedtls.o [8]
versionTypeNames        0x0801f4e8    0x18  Data  Lc  version-debug.o [1]
wakeupXtalState         0x2000ffcb     0x1  Data  Gb  clocks.o [4]
writeHelloStart         0x0802967d    0x4c  Code  Lc  tls-handshake.o [8]
writeKeysToToken        0x08014eb5    0x62  Code  Lc  distributed-key-management.o [8]
writePageCounters       0x08007e7b    0x7c  Code  Lc  sim-eeprom-internal.o [7]
writeSessionId          0x080296c9    0x1e  Code  Lc  tls-handshake.o [8]
writeTlsRecordHeader    0x0802ab45    0x3e  Code  Lc  tls-ccm-record.o [8]
writeTokenBlockData     0x08007771    0x58  Code  Lc  sim-eeprom-internal.o [7]
wrongMessage            0x0802a503     0xc  Code  Lc  tls-handshake.o [8]
xtalAboveLoThresholdUs  0x2000e298     0x2  Data  Gb  clocks.o [4]
xtalUnstable            0x2000ffca     0x1  Data  Gb  clocks.o [4]


[1] = C:\SiliconLabs\Thread-1.0.1\app\Thread_Sample_Client\build\obj
[2] = command line
[3] = dl7M_tln.a
[4] = hal-library.a
[5] = m7M_tl.a
[6] = rt7M_tl.a
[7] = sim-eeprom1-library.a
[8] = thread-stack.a

  169 930 bytes of readonly  code memory
   10 552 bytes of readonly  data memory
   26 105 bytes of readwrite data memory

Errors: none
Warnings: none
